
Sprint1.elf:     file format elf32-littlenios2
Sprint1.elf
architecture: nios2, flags 0x00000112:
EXEC_P, HAS_SYMS, D_PAGED
start address 0x010001b8

Program Header:
    LOAD off    0x00001000 vaddr 0x01000000 paddr 0x01000000 align 2**12
         filesz 0x00000020 memsz 0x00000020 flags r-x
    LOAD off    0x00001020 vaddr 0x01000020 paddr 0x01000020 align 2**12
         filesz 0x00035418 memsz 0x00035418 flags r-x
    LOAD off    0x00036438 vaddr 0x01035438 paddr 0x01036ff8 align 2**12
         filesz 0x00001bc0 memsz 0x00001bc0 flags rw-
    LOAD off    0x00038bb8 vaddr 0x01038bb8 paddr 0x01038bb8 align 2**12
         filesz 0x00000000 memsz 0x00000ab4 flags rw-

Sections:
Idx Name          Size      VMA       LMA       File off  Algn
  0 .entry        00000020  01000000  01000000  00001000  2**5
                  CONTENTS, ALLOC, LOAD, READONLY, CODE
  1 .exceptions   00000198  01000020  01000020  00001020  2**2
                  CONTENTS, ALLOC, LOAD, READONLY, CODE
  2 .text         00028ed0  010001b8  010001b8  000011b8  2**2
                  CONTENTS, ALLOC, LOAD, READONLY, CODE
  3 .rodata       0000c3b0  01029088  01029088  0002a088  2**2
                  CONTENTS, ALLOC, LOAD, READONLY, DATA
  4 .rwdata       00001bc0  01035438  01036ff8  00036438  2**2
                  CONTENTS, ALLOC, LOAD, DATA, SMALL_DATA
  5 .bss          00000ab4  01038bb8  01038bb8  00038bb8  2**2
                  ALLOC, SMALL_DATA
  6 .comment      00000026  00000000  00000000  00037ff8  2**0
                  CONTENTS, READONLY
  7 .debug_aranges 00001738  00000000  00000000  00038020  2**3
                  CONTENTS, READONLY, DEBUGGING
  8 .debug_pubnames 00003ca9  00000000  00000000  00039758  2**0
                  CONTENTS, READONLY, DEBUGGING
  9 .debug_info   0004aabc  00000000  00000000  0003d401  2**0
                  CONTENTS, READONLY, DEBUGGING
 10 .debug_abbrev 0000e335  00000000  00000000  00087ebd  2**0
                  CONTENTS, READONLY, DEBUGGING
 11 .debug_line   0002886d  00000000  00000000  000961f2  2**0
                  CONTENTS, READONLY, DEBUGGING
 12 .debug_frame  00003f08  00000000  00000000  000bea60  2**2
                  CONTENTS, READONLY, DEBUGGING
 13 .debug_str    00004029  00000000  00000000  000c2968  2**0
                  CONTENTS, READONLY, DEBUGGING
 14 .debug_loc    00016674  00000000  00000000  000c6991  2**0
                  CONTENTS, READONLY, DEBUGGING
 15 .debug_alt_sim_info 00000060  00000000  00000000  000dd008  2**2
                  CONTENTS, READONLY, DEBUGGING
 16 .debug_ranges 00000b90  00000000  00000000  000dd068  2**3
                  CONTENTS, READONLY, DEBUGGING
 17 .thread_model 00000003  00000000  00000000  000e4589  2**0
                  CONTENTS, READONLY
 18 .cpu          0000000c  00000000  00000000  000e458c  2**0
                  CONTENTS, READONLY
 19 .qsys         00000001  00000000  00000000  000e4598  2**0
                  CONTENTS, READONLY
 20 .simulation_enabled 00000001  00000000  00000000  000e4599  2**0
                  CONTENTS, READONLY
 21 .stderr_dev   0000000b  00000000  00000000  000e459a  2**0
                  CONTENTS, READONLY
 22 .stdin_dev    0000000b  00000000  00000000  000e45a5  2**0
                  CONTENTS, READONLY
 23 .stdout_dev   0000000b  00000000  00000000  000e45b0  2**0
                  CONTENTS, READONLY
 24 .sopc_system_name 0000000b  00000000  00000000  000e45bb  2**0
                  CONTENTS, READONLY
 25 .quartus_project_dir 00000066  00000000  00000000  000e45c6  2**0
                  CONTENTS, READONLY
 26 .sopcinfo     00086ce4  00000000  00000000  000e462c  2**0
                  CONTENTS, READONLY
SYMBOL TABLE:
01000000 l    d  .entry	00000000 .entry
01000020 l    d  .exceptions	00000000 .exceptions
010001b8 l    d  .text	00000000 .text
01029088 l    d  .rodata	00000000 .rodata
01035438 l    d  .rwdata	00000000 .rwdata
01038bb8 l    d  .bss	00000000 .bss
00000000 l    d  .comment	00000000 .comment
00000000 l    d  .debug_aranges	00000000 .debug_aranges
00000000 l    d  .debug_pubnames	00000000 .debug_pubnames
00000000 l    d  .debug_info	00000000 .debug_info
00000000 l    d  .debug_abbrev	00000000 .debug_abbrev
00000000 l    d  .debug_line	00000000 .debug_line
00000000 l    d  .debug_frame	00000000 .debug_frame
00000000 l    d  .debug_str	00000000 .debug_str
00000000 l    d  .debug_loc	00000000 .debug_loc
00000000 l    d  .debug_alt_sim_info	00000000 .debug_alt_sim_info
00000000 l    d  .debug_ranges	00000000 .debug_ranges
01000200 l       .text	00000000 alt_after_alt_main
00000000 l    df *ABS*	00000000 alt_irq_handler.c
00000000 l    df *ABS*	00000000 Bluetooth.c
00000000 l    df *ABS*	00000000 Bresenhams_Line_Drawing_Algorithm.c
00000000 l    df *ABS*	00000000 BuildFactory.c
01029134 l     O .rodata	0000000b row1_low
01029140 l     O .rodata	0000000c row2_low
0102914c l     O .rodata	0000000a row3_low
01029158 l     O .rodata	0000000b row1_caps
01029164 l     O .rodata	0000000c row2_caps
01029170 l     O .rodata	0000000a row3_caps
0102917c l     O .rodata	0000000b numbers
00000000 l    df *ABS*	00000000 BuildPages.c
010291ac l     O .rodata	0000000b row1_low
010291b8 l     O .rodata	0000000c row2_low
010291c4 l     O .rodata	0000000a row3_low
010291d0 l     O .rodata	0000000b row1_caps
010291dc l     O .rodata	0000000c row2_caps
010291e8 l     O .rodata	0000000a row3_caps
010291f4 l     O .rodata	0000000b numbers
00000000 l    df *ABS*	00000000 Cipher.c
010294ac l     O .rodata	0000000b row1_low
010294b8 l     O .rodata	0000000c row2_low
010294c4 l     O .rodata	0000000a row3_low
010294d0 l     O .rodata	0000000b row1_caps
010294dc l     O .rodata	0000000c row2_caps
010294e8 l     O .rodata	0000000a row3_caps
010294f4 l     O .rodata	0000000b numbers
01036fa8 l     O .rwdata	00000007 __func__.3375
01029528 l     O .rodata	0000000f __func__.3773
01029574 l     O .rodata	0000000c __func__.4024
00000000 l    df *ABS*	00000000 Draw.c
01029594 l     O .rodata	0000000b row1_low
010295a0 l     O .rodata	0000000c row2_low
010295ac l     O .rodata	0000000a row3_low
010295b8 l     O .rodata	0000000b row1_caps
010295c4 l     O .rodata	0000000c row2_caps
010295d0 l     O .rodata	0000000a row3_caps
010295dc l     O .rodata	0000000b numbers
00000000 l    df *ABS*	00000000 ExecutePage.c
010299e8 l     O .rodata	0000000b row1_low
010299f4 l     O .rodata	0000000c row2_low
01029a00 l     O .rodata	0000000a row3_low
01029a0c l     O .rodata	0000000b row1_caps
01029a18 l     O .rodata	0000000c row2_caps
01029a24 l     O .rodata	0000000a row3_caps
01029a30 l     O .rodata	0000000b numbers
00000000 l    df *ABS*	00000000 Font_alg.c
00000000 l    df *ABS*	00000000 GPS.c
0103444c l     O .rodata	0000000b row1_low
01034458 l     O .rodata	0000000c row2_low
01034464 l     O .rodata	0000000a row3_low
01034470 l     O .rodata	0000000b row1_caps
0103447c l     O .rodata	0000000c row2_caps
01034488 l     O .rodata	0000000a row3_caps
01034494 l     O .rodata	0000000b numbers
01038c74 l     O .bss	00000064 buff.3637
01038cd8 l     O .bss	00000064 buff.3646
00000000 l    df *ABS*	00000000 InputBox.c
01034598 l     O .rodata	0000000b row1_low
010345a4 l     O .rodata	0000000c row2_low
010345b0 l     O .rodata	0000000a row3_low
010345bc l     O .rodata	0000000b row1_caps
010345c8 l     O .rodata	0000000c row2_caps
010345d4 l     O .rodata	0000000a row3_caps
010345e0 l     O .rodata	0000000b numbers
00000000 l    df *ABS*	00000000 SD_BOX.c
010345ec l     O .rodata	0000000b row1_low
010345f8 l     O .rodata	0000000c row2_low
01034604 l     O .rodata	0000000a row3_low
01034610 l     O .rodata	0000000b row1_caps
0103461c l     O .rodata	0000000c row2_caps
01034628 l     O .rodata	0000000a row3_caps
01034634 l     O .rodata	0000000b numbers
00000000 l    df *ABS*	00000000 SD_CARD.c
01034640 l     O .rodata	0000000b row1_low
0103464c l     O .rodata	0000000c row2_low
01034658 l     O .rodata	0000000a row3_low
01034664 l     O .rodata	0000000b row1_caps
01034670 l     O .rodata	0000000c row2_caps
0103467c l     O .rodata	0000000a row3_caps
01034688 l     O .rodata	0000000b numbers
00000000 l    df *ABS*	00000000 TouchScreen.c
01034968 l     O .rodata	0000000b row1_low
01034974 l     O .rodata	0000000c row2_low
01034980 l     O .rodata	0000000a row3_low
0103498c l     O .rodata	0000000b row1_caps
01034998 l     O .rodata	0000000c row2_caps
010349a4 l     O .rodata	0000000a row3_caps
010349b0 l     O .rodata	0000000b numbers
00000000 l    df *ABS*	00000000 WriteCaption.c
010349d4 l     O .rodata	0000000b row1_low
010349e0 l     O .rodata	0000000c row2_low
010349ec l     O .rodata	0000000a row3_low
010349f8 l     O .rodata	0000000b row1_caps
01034a04 l     O .rodata	0000000c row2_caps
01034a10 l     O .rodata	0000000a row3_caps
01034a1c l     O .rodata	0000000b numbers
00000000 l    df *ABS*	00000000 barycentric.c
01034a28 l     O .rodata	0000000b row1_low
01034a34 l     O .rodata	0000000c row2_low
01034a40 l     O .rodata	0000000a row3_low
01034a4c l     O .rodata	0000000b row1_caps
01034a58 l     O .rodata	0000000c row2_caps
01034a64 l     O .rodata	0000000a row3_caps
01034a70 l     O .rodata	0000000b numbers
01035448 l     O .rwdata	00000040 extents
01035488 l     O .rwdata	00000018 TRI
010354a0 l     O .rwdata	00000040 screen
01034a7c l     O .rodata	00000016 __func__.3655
00000000 l    df *ABS*	00000000 sprint2.c
01034ad0 l     O .rodata	0000000b row1_low
01034adc l     O .rodata	0000000c row2_low
01034ae8 l     O .rodata	0000000a row3_low
01034af4 l     O .rodata	0000000b row1_caps
01034b00 l     O .rodata	0000000c row2_caps
01034b0c l     O .rodata	0000000a row3_caps
01034b18 l     O .rodata	0000000b numbers
00000000 l    df *ABS*	00000000 s_ceil.c
00000000 l    df *ABS*	00000000 s_cos.c
00000000 l    df *ABS*	00000000 s_sin.c
00000000 l    df *ABS*	00000000 w_acos.c
00000000 l    df *ABS*	00000000 w_sqrt.c
00000000 l    df *ABS*	00000000 e_acos.c
00000000 l    df *ABS*	00000000 e_rem_pio2.c
01034bb4 l     O .rodata	00000108 two_over_pi
01034b34 l     O .rodata	00000080 npio2_hw
00000000 l    df *ABS*	00000000 e_sqrt.c
00000000 l    df *ABS*	00000000 k_cos.c
00000000 l    df *ABS*	00000000 k_rem_pio2.c
01034cbc l     O .rodata	00000010 init_jk
01034ccc l     O .rodata	00000040 PIo2
00000000 l    df *ABS*	00000000 k_sin.c
00000000 l    df *ABS*	00000000 s_fabs.c
00000000 l    df *ABS*	00000000 s_floor.c
00000000 l    df *ABS*	00000000 s_isnand.c
00000000 l    df *ABS*	00000000 s_lib_ver.c
00000000 l    df *ABS*	00000000 s_matherr.c
00000000 l    df *ABS*	00000000 s_nan.c
00000000 l    df *ABS*	00000000 s_scalbn.c
00000000 l    df *ABS*	00000000 s_copysign.c
00000000 l    df *ABS*	00000000 fp-bit.c
00000000 l    df *ABS*	00000000 dp-bit.c
01012590 l     F .text	00000410 _fpadd_parts
00000000 l    df *ABS*	00000000 dp-bit.c
00000000 l    df *ABS*	00000000 dp-bit.c
00000000 l    df *ABS*	00000000 dp-bit.c
00000000 l    df *ABS*	00000000 dp-bit.c
00000000 l    df *ABS*	00000000 dp-bit.c
00000000 l    df *ABS*	00000000 dp-bit.c
00000000 l    df *ABS*	00000000 dp-bit.c
00000000 l    df *ABS*	00000000 dp-bit.c
00000000 l    df *ABS*	00000000 dp-bit.c
00000000 l    df *ABS*	00000000 dp-bit.c
00000000 l    df *ABS*	00000000 lib2-divmod.c
010134d8 l     F .text	0000007c udivmodsi4
00000000 l    df *ABS*	00000000 libgcc2.c
00000000 l    df *ABS*	00000000 libgcc2.c
00000000 l    df *ABS*	00000000 fp-bit.c
00000000 l    df *ABS*	00000000 dp-bit.c
00000000 l    df *ABS*	00000000 dp-bit.c
00000000 l    df *ABS*	00000000 dp-bit.c
00000000 l    df *ABS*	00000000 libgcc2.c
00000000 l    df *ABS*	00000000 assert.c
00000000 l    df *ABS*	00000000 atof.c
00000000 l    df *ABS*	00000000 atoi.c
00000000 l    df *ABS*	00000000 errno.c
00000000 l    df *ABS*	00000000 fgetc.c
00000000 l    df *ABS*	00000000 findfp.c
01013ee8 l     F .text	00000058 std
01013ff4 l     F .text	00000008 __fp_lock
01013ffc l     F .text	00000008 __fp_unlock
00000000 l    df *ABS*	00000000 fiprintf.c
00000000 l    df *ABS*	00000000 fopen.c
00000000 l    df *ABS*	00000000 fseek.c
00000000 l    df *ABS*	00000000 fstatr.c
00000000 l    df *ABS*	00000000 fwalk.c
00000000 l    df *ABS*	00000000 impure.c
010354e0 l     O .rwdata	00000400 impure_data
00000000 l    df *ABS*	00000000 int_errno.c
00000000 l    df *ABS*	00000000 makebuf.c
00000000 l    df *ABS*	00000000 malloc.c
00000000 l    df *ABS*	00000000 mallocr.c
00000000 l    df *ABS*	00000000 memcpy.c
00000000 l    df *ABS*	00000000 memmove.c
00000000 l    df *ABS*	00000000 memset.c
00000000 l    df *ABS*	00000000 openr.c
00000000 l    df *ABS*	00000000 printf.c
00000000 l    df *ABS*	00000000 putchar.c
00000000 l    df *ABS*	00000000 puts.c
00000000 l    df *ABS*	00000000 refill.c
01015818 l     F .text	0000001c lflush
00000000 l    df *ABS*	00000000 rget.c
00000000 l    df *ABS*	00000000 sbrkr.c
00000000 l    df *ABS*	00000000 sprintf.c
00000000 l    df *ABS*	00000000 stdio.c
00000000 l    df *ABS*	00000000 strcat.c
00000000 l    df *ABS*	00000000 strcmp.c
00000000 l    df *ABS*	00000000 strcpy.c
00000000 l    df *ABS*	00000000 strlen.c
00000000 l    df *ABS*	00000000 strncat.c
00000000 l    df *ABS*	00000000 strncpy.c
00000000 l    df *ABS*	00000000 strtod.c
01015edc l     F .text	00000048 match
01035cfc l     O .rwdata	00000014 fpi.1950
01034e78 l     O .rodata	00000028 tinytens
01035ce8 l     O .rwdata	00000014 fpinan.1986
00000000 l    df *ABS*	00000000 strtok.c
00000000 l    df *ABS*	00000000 strtok_r.c
00000000 l    df *ABS*	00000000 strtol.c
00000000 l    df *ABS*	00000000 strtoul.c
00000000 l    df *ABS*	00000000 vfiprintfr_1.c
00000000 l    df *ABS*	00000000 vfprintf.c
01017ae4 l     F .text	00000058 __sprint_r
01034f0e l     O .rodata	00000010 blanks.3452
01034efe l     O .rodata	00000010 zeroes.3453
00000000 l    df *ABS*	00000000 writer.c
00000000 l    df *ABS*	00000000 wsetup.c
00000000 l    df *ABS*	00000000 abort.c
00000000 l    df *ABS*	00000000 closer.c
00000000 l    df *ABS*	00000000 ctype_.c
0103501f l     O .rodata	00000180 _ctype_b
00000000 l    df *ABS*	00000000 dtoa.c
01019c48 l     F .text	00000218 quorem
00000000 l    df *ABS*	00000000 fclose.c
00000000 l    df *ABS*	00000000 fflush.c
00000000 l    df *ABS*	00000000 flags.c
00000000 l    df *ABS*	00000000 mallocr.c
00000000 l    df *ABS*	00000000 fvwrite.c
00000000 l    df *ABS*	00000000 gdtoa-gethex.c
0101c0e4 l     F .text	00000024 htinit
0101c170 l     F .text	000000b0 rshift
00000000 l    df *ABS*	00000000 gdtoa-hexnan.c
0101c9d8 l     F .text	0000004c L_shift
00000000 l    df *ABS*	00000000 isattyr.c
00000000 l    df *ABS*	00000000 locale.c
01036fcc l     O .rwdata	00000004 charset
010351dc l     O .rodata	00000030 lconv
00000000 l    df *ABS*	00000000 lseekr.c
00000000 l    df *ABS*	00000000 memchr.c
00000000 l    df *ABS*	00000000 mprec.c
01035324 l     O .rodata	0000000c p05.2458
00000000 l    df *ABS*	00000000 putc.c
00000000 l    df *ABS*	00000000 readr.c
00000000 l    df *ABS*	00000000 mallocr.c
00000000 l    df *ABS*	00000000 s_isinfd.c
00000000 l    df *ABS*	00000000 signal.c
00000000 l    df *ABS*	00000000 signalr.c
00000000 l    df *ABS*	00000000 vfprintf.c
0101ead8 l     F .text	00000058 __sprint_r
01035340 l     O .rodata	00000010 blanks.3391
01035330 l     O .rodata	00000010 zeroes.3392
00000000 l    df *ABS*	00000000 wbuf.c
00000000 l    df *ABS*	00000000 mallocr.c
00000000 l    df *ABS*	00000000 libgcc2.c
00000000 l    df *ABS*	00000000 libgcc2.c
00000000 l    df *ABS*	00000000 libgcc2.c
00000000 l    df *ABS*	00000000 fp-bit.c
00000000 l    df *ABS*	00000000 fp-bit.c
00000000 l    df *ABS*	00000000 fp-bit.c
00000000 l    df *ABS*	00000000 dp-bit.c
00000000 l    df *ABS*	00000000 dp-bit.c
00000000 l    df *ABS*	00000000 dp-bit.c
00000000 l    df *ABS*	00000000 dp-bit.c
00000000 l    df *ABS*	00000000 fp-bit.c
00000000 l    df *ABS*	00000000 fp-bit.c
00000000 l    df *ABS*	00000000 fp-bit.c
00000000 l    df *ABS*	00000000 alt_close.c
010211d8 l     F .text	00000060 alt_get_errno
00000000 l    df *ABS*	00000000 alt_dev.c
01021238 l     F .text	0000002c alt_dev_null_write
00000000 l    df *ABS*	00000000 alt_errno.c
00000000 l    df *ABS*	00000000 alt_exit.c
01021264 l     F .text	00000040 alt_sim_halt
00000000 l    df *ABS*	00000000 alt_fstat.c
01021398 l     F .text	00000060 alt_get_errno
00000000 l    df *ABS*	00000000 alt_getpid.c
00000000 l    df *ABS*	00000000 alt_isatty.c
010214d8 l     F .text	00000060 alt_get_errno
00000000 l    df *ABS*	00000000 alt_kill.c
01021678 l     F .text	00000060 alt_get_errno
00000000 l    df *ABS*	00000000 alt_load.c
01021758 l     F .text	0000006c alt_load_section
00000000 l    df *ABS*	00000000 alt_lseek.c
010218b4 l     F .text	00000060 alt_get_errno
00000000 l    df *ABS*	00000000 alt_main.c
00000000 l    df *ABS*	00000000 alt_malloc_lock.c
00000000 l    df *ABS*	00000000 alt_open.c
010219c0 l     F .text	000000dc alt_file_locked
01021c24 l     F .text	00000060 alt_get_errno
00000000 l    df *ABS*	00000000 alt_printf.c
00000000 l    df *ABS*	00000000 alt_putchar.c
00000000 l    df *ABS*	00000000 alt_read.c
0102203c l     F .text	00000060 alt_get_errno
00000000 l    df *ABS*	00000000 alt_release_fd.c
00000000 l    df *ABS*	00000000 alt_sbrk.c
01036fe8 l     O .rwdata	00000004 heap_end
00000000 l    df *ABS*	00000000 alt_usleep.c
00000000 l    df *ABS*	00000000 alt_write.c
01022308 l     F .text	00000060 alt_get_errno
00000000 l    df *ABS*	00000000 alt_sys_init.c
01035ec4 l     O .rwdata	00001060 jtag_uart_0
01036f24 l     O .rwdata	0000002c character_lcd_0
01036f50 l     O .rwdata	0000002c rs232_0
01036f7c l     O .rwdata	0000002c Altera_UP_SD_Card_Avalon_Interface_0
01022448 l     F .text	00000038 alt_dev_reg
00000000 l    df *ABS*	00000000 Altera_UP_SD_Card_Avalon_Interface.c
010353d8 l     O .rodata	00000016 __func__.4813
00000000 l    df *ABS*	00000000 altera_avalon_jtag_uart_fd.c
00000000 l    df *ABS*	00000000 altera_avalon_jtag_uart_init.c
01026c7c l     F .text	0000022c altera_avalon_jtag_uart_irq
01026ea8 l     F .text	000000b0 altera_avalon_jtag_uart_timeout
00000000 l    df *ABS*	00000000 altera_avalon_jtag_uart_ioctl.c
00000000 l    df *ABS*	00000000 altera_avalon_jtag_uart_read.c
00000000 l    df *ABS*	00000000 altera_avalon_jtag_uart_write.c
00000000 l    df *ABS*	00000000 altera_avalon_timer_sc.c
01027524 l     F .text	00000074 alt_avalon_timer_sc_irq
00000000 l    df *ABS*	00000000 altera_avalon_timer_ts.c
00000000 l    df *ABS*	00000000 altera_avalon_timer_vars.c
00000000 l    df *ABS*	00000000 altera_up_avalon_character_lcd.c
00000000 l    df *ABS*	00000000 altera_up_avalon_rs232.c
00000000 l    df *ABS*	00000000 alt_alarm_start.c
00000000 l    df *ABS*	00000000 alt_busy_sleep.c
00000000 l    df *ABS*	00000000 alt_dcache_flush_all.c
00000000 l    df *ABS*	00000000 alt_dev_llist_insert.c
010283c8 l     F .text	00000060 alt_get_errno
00000000 l    df *ABS*	00000000 alt_do_ctors.c
00000000 l    df *ABS*	00000000 alt_do_dtors.c
00000000 l    df *ABS*	00000000 alt_find_dev.c
00000000 l    df *ABS*	00000000 alt_find_file.c
00000000 l    df *ABS*	00000000 alt_get_fd.c
00000000 l    df *ABS*	00000000 alt_icache_flush_all.c
00000000 l    df *ABS*	00000000 alt_io_redirect.c
0102878c l     F .text	000000c4 alt_open_fd
00000000 l    df *ABS*	00000000 alt_irq_register.c
00000000 l    df *ABS*	00000000 alt_irq_vars.c
00000000 l    df *ABS*	00000000 alt_tick.c
00000000 l    df *ABS*	00000000 altera_nios2_qsys_irq.c
00000000 l    df *ABS*	00000000 alt_icache_flush.c
00000000 l    df *ABS*	00000000 atexit.c
00000000 l    df *ABS*	00000000 exit.c
00000000 l    df *ABS*	00000000 memcmp.c
00000000 l    df *ABS*	00000000 __atexit.c
00000000 l    df *ABS*	00000000 __call_atexit.c
01028ed0 l     F .text	00000004 register_fini
01038c34 g     O .bss	00000004 aux_status_register
0101557c g     F .text	0000001c putchar
0100a1bc g     F .text	00000090 deg2rad
01038bb8 g     O .bss	00000004 password
0101d308 g     F .text	00000094 _mprec_log10
01009020 g     F .text	000000dc validinputboxpress
0101d3f4 g     F .text	00000088 __any_on
0101cc6c g     F .text	00000070 _isatty_r
010352fc g     O .rodata	00000028 __mprec_tinytens
01021914 g     F .text	0000006c alt_main
01015c70 g     F .text	0000008c strcpy
010155a0 g     F .text	000000a0 _puts_r
010393dc g     O .bss	00000100 alt_irq
010120b4 g     F .text	00000018 fabs
0101cda0 g     F .text	00000078 _lseek_r
0100f37c g     F .text	00000130 sqrt
010099e4 g     F .text	00000070 FloatToLongitudeConversion
01005290 g     F .text	00000420 decrypt
01036ff8 g       *ABS*	00000000 __flash_rwdata_start
01000814 g     F .text	000000f8 DrawRectangleFill
01027804 g     F .text	00000034 alt_up_character_lcd_send_cmd
0101b768 g     F .text	000000a0 __sflags
01038bbc g     O .bss	00000004 self
010057c0 g     F .text	00000198 blocky
010130b0 g     F .text	00000088 __eqdf2
01038bc0 g     O .bss	00000004 map
01022830 g     F .text	000001b0 Check_for_Master_Boot_Record
010005a0 g     F .text	0000007c ProgramPalette
0100e974 g     F .text	00000194 toScreen
0100a63c g     F .text	0000028c checkDistance
01003c14 g     F .text	000001d8 buildPWSetupPage
01005a44 g     F .text	0000008c func_int_2_4char
0103966c g       *ABS*	00000000 __alt_heap_start
01017604 g     F .text	00000008 strtok_r
010266f8 g     F .text	000001f8 alt_up_sd_card_fclose
0101ea64 g     F .text	00000074 _kill_r
01015504 g     F .text	00000044 printf
0102a1c2 g     O .rodata	00000a64 Font10x14
0100b69c g     F .text	000000f8 GetPress
0101e9a4 g     F .text	000000a0 _signal_r
010159e0 g     F .text	00000068 __sseek
01013f50 g     F .text	000000a4 __sinit
0101fbf8 g     F .text	00000130 __swbuf_r
0101cd00 g     F .text	00000084 _setlocale_r
0100b644 g     F .text	00000058 WaitForTouch
01014050 g     F .text	00000068 __sfmoreglue
01008c40 g     F .text	00000070 decrementBuffer
010219a0 g     F .text	00000020 __malloc_unlock
01027eec g     F .text	00000090 alt_up_rs232_read_fd
01015f24 g     F .text	000014e4 _strtod_r
0100c3e8 g     F .text	000000e0 crossp
01038c58 g     O .bss	00000004 current_sector_modified
010269ec g     F .text	00000090 Read_Sector_Data_Attempt_CRC
01038c64 g     O .bss	00000004 altera_avalon_timer_ts_freq
01015314 g     F .text	000000e0 memmove
01014040 g     F .text	00000010 _cleanup
0101d47c g     F .text	000000bc _Balloc
01017560 g     F .text	000000a4 __strtok_r
01009eb8 g     F .text	00000304 printCoordinates
010252a4 g     F .text	000000c8 alt_up_sd_card_is_Present
01022548 g     F .text	00000050 Save_Modified_Sector
0100c19c g     F .text	0000008c vec3
01013138 g     F .text	00000088 __gtdf2
01013db0 g     F .text	00000010 __errno
01027788 g     F .text	0000007c get_DDRAM_addr
01008cf0 g     F .text	00000110 updateBuffer
0100eb08 g     F .text	000001fc computePixel
01000000 g     F .entry	0000001c __reset
01038c50 g     O .bss	00000004 fat_partition_size_in_512_byte_sectors
01003dec g     F .text	00000248 buildLoggingSettingsPage
01005ad0 g     F .text	00000058 xor4char
0100ed64 g     F .text	00000214 ceil
01000020 g       *ABS*	00000000 __flash_exceptions_start
0100b8f4 g     F .text	00000050 getcharTouch
01014784 g     F .text	00000074 _fstat_r
01000e8c g     F .text	00000104 buildButton
01038c04 g     O .bss	00000004 errno
010134a0 g     F .text	00000038 __make_dp
01015880 g     F .text	00000014 __srget
010120cc g     F .text	00000224 floor
010090fc g     F .text	0000010c validsdboxpress
01020f50 g     F .text	0000002c __make_fp
01038c24 g     O .bss	00000004 alt_argv
0103efa8 g       *ABS*	00000000 _gp
010221b8 g     F .text	00000030 usleep
01025864 g     F .text	000003a8 alt_up_sd_card_fopen
010253e0 g     F .text	000000d4 alt_up_sd_card_find_first
01006ee8 g     F .text	0000117c executeMapPress
01038c44 g     O .bss	00000004 command_argument_register
010213f8 g     F .text	00000020 getpid
01038bfc g     O .bss	00000008 hex_segments
010009cc g     F .text	000000a0 DrawTriangles
01035d44 g     O .rwdata	00000180 alt_fd_list
0100b794 g     F .text	000000f8 GetRelease
0100ff04 g     F .text	00000828 __ieee754_rem_pio2
01015598 g     F .text	00000008 _putchar_r
01024ad4 g     F .text	0000012c find_first_empty_record_in_root_directory
010284f0 g     F .text	00000094 alt_find_dev
01015274 g     F .text	000000a0 memcpy
0101ca24 g     F .text	00000248 __hexnan
010083b8 g     F .text	00000608 MainMenu
01004878 g     F .text	00000158 hex2char
0102799c g     F .text	0000004c alt_up_character_lcd_write_fd
010095d0 g     F .text	000001cc OutGraphicsCharFont2a
01014034 g     F .text	0000000c _cleanup_r
010132d0 g     F .text	000000f8 __floatsidf
01028850 g     F .text	00000078 alt_io_redirect
01013248 g     F .text	00000088 __ltdf2
01029088 g       *ABS*	00000000 __DTOR_END__
01038bc4 g     O .bss	00000004 destination
0100dd98 g     F .text	000000d0 findMin
01027e78 g     F .text	00000074 alt_up_rs232_read_data
01015640 g     F .text	00000014 puts
010246e4 g     F .text	000001a4 find_first_empty_cluster
0101d258 g     F .text	000000b0 __ratio
010024f0 g     F .text	00000340 buildHomePage
010251e0 g     F .text	000000c4 alt_up_sd_card_open_dev
0101fbd4 g     F .text	00000024 __vfiprintf_internal
0100c778 g     F .text	000000d8 psubp
010270c0 g     F .text	00000224 altera_avalon_jtag_uart_read
01014b20 g     F .text	00000014 malloc
01015548 g     F .text	00000034 _printf_r
00000000 g       *ABS*	00000000 __alt_mem_onchip_memory2_0
01013614 g     F .text	00000008 __udivsi3
01021418 g     F .text	000000c0 isatty
01005f54 g     F .text	000000dc printCipher
0101e788 g     F .text	000000cc _raise_r
01013d18 g     F .text	00000064 __assert_func
0103520c g     O .rodata	000000c8 __mprec_tens
0102ecb8 g     O .rodata	00005794 Font38x59
0101ccdc g     F .text	00000008 __locale_charset
010109f4 g     F .text	0000052c __kernel_cos
010023f8 g     F .text	000000f8 buildObject
0101fdf8 g     F .text	000000a4 __fixunsdfsi
01028c4c g     F .text	00000090 alt_icache_flush
01038c08 g     O .bss	00000004 __malloc_top_pad
0101ea60 g     F .text	00000004 _getpid_r
0100d1f0 g     F .text	00000314 barycentric
01003800 g     F .text	00000110 buildKeysPage
01017aa4 g     F .text	00000024 strtoul
01036fc8 g     O .rwdata	00000004 __mb_cur_max
0101cce4 g     F .text	0000000c _localeconv_r
0100ba90 g     F .text	00000124 updateCoord
0101db74 g     F .text	0000003c __i2b
0101bc48 g     F .text	0000049c __sfvwrite_r
0101e8dc g     F .text	000000b4 __sigtramp_r
010239c0 g     F .text	000000c0 get_dir_divider_location
0100c6a0 g     F .text	000000d8 vsubp
01015894 g     F .text	00000070 _sbrk_r
010002b4 g     F .text	00000060 putcharBluetooth
01023660 g     F .text	000000d0 filename_to_upper_case
01025c0c g     F .text	00000090 alt_up_sd_card_set_attributes
010229e0 g     F .text	00000284 Read_File_Record_At_Offset
0101e0dc g     F .text	00000078 _read_r
01035d10 g     O .rwdata	0000000c __lc_ctype
01036fe0 g     O .rwdata	00000004 alt_max_fd
01027de0 g     F .text	00000050 alt_up_rs232_check_parity
01013b18 g     F .text	00000138 __unpack_d
01024280 g     F .text	00000464 find_file_in_directory
0101b414 g     F .text	00000110 _fclose_r
01000314 g     F .text	0000005c enterCommandMode
0101b734 g     F .text	00000034 fflush
01038c0c g     O .bss	00000004 __malloc_max_sbrked_mem
010288c8 g     F .text	000001c0 alt_irq_register
0100061c g     F .text	000000ac HLine
01011d9c g     F .text	00000318 __kernel_sin
0101253c g     F .text	00000054 __extendsfdf2
0100ca3c g     F .text	0000006c point
01004678 g     F .text	00000200 char2hex
01013e58 g     F .text	00000090 _fgetc_r
0102536c g     F .text	00000074 alt_up_sd_card_is_FAT16
01012a20 g     F .text	00000074 __adddf3
01020a28 g     F .text	00000078 __nesf2
01009828 g     F .text	0000004c putcharGPS
0101d138 g     F .text	00000120 __b2d
01009ae8 g     F .text	000000b4 checkBuff
01020478 g     F .text	000005b0 __umoddi3
010217c4 g     F .text	000000f0 lseek
01036fb0 g     O .rwdata	00000004 __fdlib_version
0100b364 g     F .text	00000140 readFromSDEncrypted
01036fb8 g     O .rwdata	00000004 _global_impure_ptr
0100bf28 g     F .text	00000114 writeCaptionObjectLarge
01023d6c g     F .text	00000514 get_home_directory_cluster_for_file
0101e154 g     F .text	000005f4 _realloc_r
0103966c g       *ABS*	00000000 __bss_end
0100ad34 g     F .text	00000144 writeToSD
01028b20 g     F .text	0000010c alt_tick
01038d74 g     O .bss	00000100 __hexdig
01038bc8 g     O .bss	00000004 passwordSetup
0101fe9c g     F .text	000005dc __udivdi3
01038bcc g     O .bss	00000004 encryptedtextlen
010352d4 g     O .rodata	00000028 __mprec_bigtens
0101ddd0 g     F .text	00000120 __s2b
01019bc0 g     F .text	00000018 abort
01020d14 g     F .text	00000194 __floatunsidf
0100c308 g     F .text	000000e0 dotp
01003ab8 g     F .text	0000015c buildPWLoginPage
0101d058 g     F .text	00000060 __mcmp
0100a2dc g     F .text	00000360 distance
01038c5c g     O .bss	00000004 current_sector_index
0100b5a8 g     F .text	0000006c Init_Touch
0100c850 g     F .text	000000c8 normsqv
010056b0 g     F .text	00000110 pad
01036fc4 g     O .rwdata	00000004 __ctype_ptr
0101401c g     F .text	00000018 __fp_lock_all
0100b4a4 g     F .text	00000104 formatAndSaveSDEncrypted
0100bbb4 g     F .text	000000a8 updateCoordNoPrint
01028a88 g     F .text	00000098 alt_alarm_stop
0102ac26 g     O .rodata	0000140a Font16x27
01017850 g     F .text	00000024 strtol
010097d8 g     F .text	00000050 GetData
0102274c g     F .text	000000e4 mark_cluster
01038c68 g     O .bss	00000004 alt_irq_active
0100643c g     F .text	0000007c drawKey
010000ec g     F .exceptions	000000cc alt_irq_handler
01035d1c g     O .rwdata	00000028 alt_dev_null
01005d7c g     F .text	000001d8 decryptCBC
01010f20 g     F .text	00000e7c __kernel_rem_pio2
01024c00 g     F .text	000001b8 convert_filename_to_name_extension
01008cb0 g     F .text	00000040 clearBuffer
01003308 g     F .text	000004f8 buildSelfPage
010093f8 g     F .text	000001d8 OutGraphicsCharFont1
01006a84 g     F .text	00000208 executePWLogin
0101373c g     F .text	000000c8 __unpack_f
01009974 g     F .text	00000070 FloatToLatitudeConversion
01027c84 g     F .text	00000034 alt_up_character_lcd_cursor_blink_on
010282d0 g     F .text	00000044 alt_dcache_flush_all
0101cf24 g     F .text	00000070 __hi0bits
01038bd0 g     O .bss	00000008 curLat
0100dc40 g     F .text	00000158 centroidEqualTo
01038c30 g     O .bss	00000004 is_sd_card_formated_as_FAT16
010133c8 g     F .text	000000d8 __fixdfsi
010006c8 g     F .text	000000ac VLine
0100c5a8 g     F .text	000000f8 vsubv
01008f28 g     F .text	000000f8 validkeypress
01024888 g     F .text	0000024c find_first_empty_record_in_a_subdirectory
0101752c g     F .text	0000001c strtod
01036ff8 g       *ABS*	00000000 __ram_rwdata_end
0100cbbc g     F .text	000000ac Vert
01036fd8 g     O .rwdata	00000008 alt_dev_list
010221e8 g     F .text	00000120 write
0101dff4 g     F .text	000000e8 _putc_r
01038c54 g     O .bss	00000004 device_pointer
01027760 g     F .text	00000028 alt_timestamp_freq
01013d90 g     F .text	00000008 atof
01020aa0 g     F .text	00000078 __gtsf2
01000c4c g     F .text	00000240 DrawCircleFill
01035438 g       *ABS*	00000000 __ram_rodata_end
010212c4 g     F .text	000000d4 fstat
0100b944 g     F .text	0000014c updateTime
010098cc g     F .text	00000038 StopLogging
01027f7c g     F .text	00000094 alt_up_rs232_write_fd
01021538 g     F .text	00000140 kill
01020c18 g     F .text	00000088 __ledf2
0100b88c g     F .text	00000068 putcharTouch
01009a54 g     F .text	00000094 swapEndian
01015b24 g     F .text	00000090 strcat
0100b614 g     F .text	00000030 ScreenTouched
01009208 g     F .text	000001f0 checkChoice
0101dcb0 g     F .text	00000120 __pow5mult
01038c14 g     O .bss	00000004 __nlocale_changed
0101eb30 g     F .text	000010a4 ___vfiprintf_internal_r
0101361c g     F .text	00000008 __umodsi3
01005b28 g     F .text	00000254 encryptCBC
0103966c g       *ABS*	00000000 end
0100a9b0 g     F .text	00000068 drawInputBox
0100c228 g     F .text	000000e0 dotv
01020f7c g     F .text	00000160 __pack_f
01013d98 g     F .text	0000000c _atoi_r
0100aafc g     F .text	000000f8 buildSDBox
0100c4c8 g     F .text	000000e0 crossv
01014760 g     F .text	00000024 fseek
01038bd8 g     O .bss	00000004 addresses
01026bc4 g     F .text	000000b8 altera_avalon_jtag_uart_init
01029084 g       *ABS*	00000000 __CTOR_LIST__
01800000 g       *ABS*	00000000 __alt_stack_pointer
01027598 g     F .text	00000088 alt_avalon_timer_sc_init
010136bc g     F .text	00000080 __clzsi2
010272e4 g     F .text	00000240 altera_avalon_jtag_uart_write
0100ef78 g     F .text	00000168 cos
0100d504 g     F .text	000004f4 barycentric2
01013f40 g     F .text	00000004 __sfp_lock_acquire
0101ce18 g     F .text	000000e4 memchr
010278ac g     F .text	00000078 alt_up_character_lcd_write
01017b3c g     F .text	00001eac ___vfprintf_internal_r
01015978 g     F .text	00000060 _sprintf_r
0101b934 g     F .text	00000314 _free_r
01021c84 g     F .text	00000258 alt_printf
01028ed4 g     F .text	000001b0 __call_exitprocs
01015834 g     F .text	0000004c __srget_r
01038c18 g     O .bss	00000004 __mlocale_changed
01036fc0 g     O .rwdata	00000004 __malloc_sbrk_base
010001b8 g     F .text	0000004c _start
0100be04 g     F .text	00000124 writeCaptionObject
01038c6c g     O .bss	00000004 _alt_tick_rate
0100f0e0 g     F .text	0000016c sin
0101d840 g     F .text	0000014c __lshift
01038c70 g     O .bss	00000004 _alt_nticks
0101ea44 g     F .text	0000001c signal
01021f1c g     F .text	00000120 read
0102239c g     F .text	000000ac alt_sys_init
01027b10 g     F .text	000000b0 alt_up_character_lcd_shift_display
0101548c g     F .text	00000078 _open_r
010003f8 g     F .text	00000044 setBluetoothPassword
010003b4 g     F .text	00000044 factoryReset
01028d9c g     F .text	00000134 __register_exitproc
01038bdc g     O .bss	00000004 loggingSettings
01027da0 g     F .text	00000040 alt_up_rs232_get_available_space_in_write_FIFO
010066d0 g     F .text	00000034 drawMenu
0100cdcc g     F .text	00000424 makeTri
0101d98c g     F .text	000001e8 __multiply
01027bc0 g     F .text	00000090 alt_up_character_lcd_erase_pos
01026f58 g     F .text	00000074 altera_avalon_jtag_uart_close
01035438 g       *ABS*	00000000 __ram_rwdata_start
01029088 g       *ABS*	00000000 __ram_rodata_start
01015e20 g     F .text	000000bc strncpy
01038d3c g     O .bss	00000028 __malloc_current_mallinfo
0101d538 g     F .text	0000017c __d2b
0100043c g     F .text	00000058 putStringBluetooth
01038c2c g     O .bss	00000004 initialized
01004a60 g     F .text	00000088 find
0100a24c g     F .text	00000090 rad2deg
01026a7c g     F .text	00000058 altera_avalon_jtag_uart_read_fd
01017874 g     F .text	00000230 _strtoul_r
010286a4 g     F .text	000000b8 alt_get_fd
01038be0 g     O .bss	00000004 panic
01038e74 g     O .bss	00000014 search_data
010281a4 g     F .text	0000012c alt_busy_sleep
01006308 g     F .text	0000006c decryptData
01013c50 g     F .text	000000c8 __fpcmp_parts_d
01002830 g     F .text	0000041c buildDestPage
01019bd8 g     F .text	00000070 _close_r
01017548 g     F .text	00000018 strtok
01028d28 g     F .text	00000074 memcmp
01026b2c g     F .text	00000048 altera_avalon_jtag_uart_close_fd
0103966c g       *ABS*	00000000 __alt_stack_base
01026b74 g     F .text	00000050 altera_avalon_jtag_uart_ioctl_fd
01019a84 g     F .text	0000013c __swsetup_r
01004e20 g     F .text	00000470 encrypt
01012e58 g     F .text	00000258 __divdf3
010140b8 g     F .text	000000f0 __sfp
01038e88 g     O .bss	00000054 boot_sector_data
010089c0 g     F .text	00000280 displayMenu
01015d70 g     F .text	000000b0 strncat
0101d39c g     F .text	00000058 __copybits
010358e0 g     O .rwdata	00000408 __malloc_av_
01013f4c g     F .text	00000004 __sinit_lock_release
01012a94 g     F .text	000003c4 __muldf3
01015ac4 g     F .text	00000060 __sread
01027d0c g     F .text	00000058 alt_up_rs232_disable_read_interrupt
01009904 g     F .text	00000038 ClearLogging
01028584 g     F .text	00000120 alt_find_file
01028314 g     F .text	000000b4 alt_dev_llist_insert
01021980 g     F .text	00000020 __malloc_lock
010220fc g     F .text	000000bc sbrk
01004ae8 g     F .text	00000230 keygen
0101b538 g     F .text	000001fc _fflush_r
0101fd44 g     F .text	000000b4 _calloc_r
01014308 g     F .text	0000001c fopen
01038bb8 g       *ABS*	00000000 __bss_start
010153f4 g     F .text	00000098 memset
0100ed04 g     F .text	00000060 main
0100b1c8 g     F .text	0000019c writeToSDEncrypted
01038c28 g     O .bss	00000004 alt_envp
01038c10 g     O .bss	00000004 __malloc_max_total_mem
01026ad4 g     F .text	00000058 altera_avalon_jtag_uart_write_fd
0100e83c g     F .text	00000138 dot3
0101fd28 g     F .text	0000001c __swbuf
01020b18 g     F .text	00000078 __ltsf2
01025c9c g     F .text	0000008c alt_up_sd_card_get_attributes
01000510 g     F .text	00000090 ReadAPixel
01022480 g     F .text	000000c8 Write_Sector_Data
010260bc g     F .text	0000063c alt_up_sd_card_write
01027a60 g     F .text	000000b0 alt_up_character_lcd_shift_cursor
010159d8 g     F .text	00000008 __sclose
01012320 g     F .text	00000008 matherr
01800000 g       *ABS*	00000000 __alt_heap_limit
0101b524 g     F .text	00000014 fclose
01020ca0 g     F .text	00000074 __truncdfsf2
0101760c g     F .text	00000244 _strtol_r
0100e0c8 g     F .text	0000060c DelaunayTriangulation
01027620 g     F .text	000000a4 alt_timestamp_start
010394dc g     O .bss	00000190 _atexit0
01019e60 g     F .text	000015b4 _dtoa_r
01009b9c g     F .text	0000031c printTime
01014b34 g     F .text	00000740 _malloc_r
01000370 g     F .text	00000044 setDeviceName
0100caa8 g     F .text	000000ac vtx
01000774 g     F .text	000000a0 Line
01036fe4 g     O .rwdata	00000004 alt_errno
01035438 g     O .rwdata	00000010 seven_seg_decode_table
010141ec g     F .text	00000028 _fiprintf_r
0101e8cc g     F .text	00000010 _init_signal
01038d64 g     O .bss	00000010 key
010148c0 g     F .text	000000b8 _fwalk
01006294 g     F .text	00000074 encryptData
0101def0 g     F .text	00000104 putc
01013554 g     F .text	00000060 __divsi3
01034d0c g     O .rodata	00000014 __thenan_df
0102786c g     F .text	00000040 alt_up_character_lcd_open_dev
0101b808 g     F .text	0000012c _malloc_trim_r
01029088 g       *ABS*	00000000 __CTOR_END__
01038c38 g     O .bss	00000004 status_register
01027838 g     F .text	00000034 alt_up_character_lcd_init
01015bb4 g     F .text	000000bc strcmp
01003910 g     F .text	000001a8 buildMenu
01038c40 g     O .bss	00000004 command_register
01029088 g       *ABS*	00000000 __flash_rodata_start
0100993c g     F .text	00000038 StartLogger
01029088 g       *ABS*	00000000 __DTOR_LIST__
01028010 g     F .text	00000040 alt_up_rs232_open_dev
0100de68 g     F .text	00000100 showMin
01012518 g     F .text	00000024 copysign
01020b90 g     F .text	00000088 __nedf2
01022368 g     F .text	00000034 alt_irq_init
0102209c g     F .text	00000060 alt_release_fd
01022694 g     F .text	000000b8 get_cluster_flag
01013dc0 g     F .text	00000098 fgetc
01015904 g     F .text	00000074 sprintf
01027c50 g     F .text	00000034 alt_up_character_lcd_cursor_off
01034d20 g     O .rodata	00000100 __clz_tab
01022c64 g     F .text	000002b8 Write_File_Record_At_Offset
01038c1c g     O .bss	00000004 _PathLocale
0100e6d4 g     F .text	00000168 CopyDelaunayTriangulation
01017408 g     F .text	00000124 strtof
0100c9a0 g     F .text	0000009c normp
01028cdc g     F .text	00000014 atexit
01019a0c g     F .text	00000078 _write_r
0101cd84 g     F .text	0000001c setlocale
01000240 g     F .text	00000074 getcharBluetooth
01022f1c g     F .text	00000640 Check_for_DOS_FAT
01024db8 g     F .text	000002d4 create_file
0100ac58 g     F .text	000000dc writeCaptionSDBox
01036fb4 g     O .rwdata	00000004 _impure_ptr
01038c3c g     O .bss	00000004 CSD_register_w0
01038c20 g     O .bss	00000004 alt_argc
0100db1c g     F .text	00000124 centroidGreaterThan
01000494 g     F .text	0000007c WriteAPixel
01012338 g     F .text	000001e0 scalbn
01038c60 g     O .bss	00000004 altera_avalon_timer_ts_base
0102848c g     F .text	00000064 _do_dtors
01014324 g     F .text	0000043c _fseek_r
01006030 g     F .text	00000144 writeCipher
01015654 g     F .text	000001c4 __srefill_r
01029f28 g     O .rodata	00000299 Font5x7
0100c918 g     F .text	00000088 normsqp
01000020 g       .exceptions	00000000 alt_irq_entry
0101d0b8 g     F .text	00000080 __ulp
0101e748 g     F .text	00000040 __isinfd
01014004 g     F .text	00000018 __fp_unlock_all
01006704 g     F .text	000000bc drawKeyboard
0100aa18 g     F .text	000000e4 updateInputBox
01038be4 g     O .bss	00000008 curLong
01036fd0 g     O .rwdata	00000008 alt_fs_list
0100a8c8 g     F .text	000000e8 buildInputBox
01023730 g     F .text	00000290 check_file_name_for_FAT16_compliance
01038c48 g     O .bss	00000004 buffer_memory
01027cb8 g     F .text	00000054 alt_up_rs232_enable_read_interrupt
01027e30 g     F .text	00000048 alt_up_rs232_write_data
01012328 g     F .text	00000010 nan
0100af9c g     F .text	00000104 formatAndSaveSD
01000020 g       *ABS*	00000000 __ram_exceptions_start
0101ccf0 g     F .text	00000010 localeconv
010276c4 g     F .text	0000009c alt_timestamp
01000204 g     F .text	0000003c initBluetooth
0101072c g     F .text	000002c8 __ieee754_sqrt
01000000 g       *ABS*	00000000 __alt_mem_new_sdram_controller_0
0100bc5c g     F .text	00000088 timerISR
010064b8 g     F .text	00000218 drawPage
0101c108 g     F .text	00000068 __hexdig_init
01038c4c g     O .bss	00000004 fat_partition_offset_in_512_byte_sectors
01036ff8 g       *ABS*	00000000 _edata
01004d18 g     F .text	00000108 printkey
0103966c g       *ABS*	00000000 _end
01038edc g     O .bss	00000500 active_files
010001b8 g       *ABS*	00000000 __ram_exceptions_end
0102508c g     F .text	00000154 copy_file_record_name_to_string
01026fcc g     F .text	000000f4 altera_avalon_jtag_uart_ioctl
0100abf4 g     F .text	00000064 drawSDBox
0102355c g     F .text	00000104 Look_for_FAT16
01000f90 g     F .text	000000f8 buildKey
01015a48 g     F .text	0000007c __swrite
01004034 g     F .text	00000220 buildPanicPage
01036fbc g     O .rwdata	00000004 __malloc_trim_threshold
01038bec g     O .bss	00000004 home
01028c2c g     F .text	00000020 altera_nios2_qsys_irq_init
01028cf0 g     F .text	00000038 exit
010141a8 g     F .text	00000044 fiprintf
01017ac8 g     F .text	0000001c _vfiprintf_r
01000a6c g     F .text	000001e0 DrawCircle
0100c03c g     F .text	00000160 writeCaptionKey
010254b4 g     F .text	000003b0 alt_up_sd_card_find_next
010147f8 g     F .text	000000c8 _fwalk_reent
0101d6b4 g     F .text	0000018c __mdiff
01005958 g     F .text	000000ec func_4char2int
010135b4 g     F .text	00000060 __modsi3
01038bf0 g     O .bss	00000004 panicFlag
01022598 g     F .text	000000fc Read_Sector_Data
01800000 g       *ABS*	00000000 __alt_data_end
01000020 g     F .exceptions	00000000 alt_exception
01013f44 g     F .text	00000004 __sfp_lock_release
0100d9f8 g     F .text	00000124 centroidLessThan
010295e8 g     O .rodata	00000400 ColourPalletteData
01027924 g     F .text	00000078 alt_up_character_lcd_string
010049d0 g     F .text	00000090 convertKey
01013da4 g     F .text	0000000c atoi
01034f1e g     O .rodata	00000101 _ctype_
0102c030 g     O .rodata	00002c88 Font22x40
01038bf4 g     O .bss	00000004 keys
0100979c g     F .text	0000003c Init_GPS
01020ea8 g     F .text	000000a8 __fpcmp_parts_f
01014214 g     F .text	000000f4 _fopen_r
010212a4 g     F .text	00000020 _exit
010122f0 g     F .text	00000030 __isnand
01028050 g     F .text	00000154 alt_alarm_start
01001088 g     F .text	00001370 buildKeyboard
01013624 g     F .text	00000098 __muldi3
010268f0 g     F .text	000000fc Read_Sector_Data_CRC
01025d28 g     F .text	00000394 alt_up_sd_card_read
01009874 g     F .text	00000058 putString
01006174 g     F .text	00000120 parseCipher
01038bf8 g     O .bss	00000004 globalCurrentPage
01014978 g     F .text	00000194 __smakebuf_r
01015cfc g     F .text	00000074 strlen
0100df68 g     F .text	00000160 nearestneighbour
0101e868 g     F .text	00000064 _init_signal_r
01021a9c g     F .text	00000188 open
010131c0 g     F .text	00000088 __gedf2
01021edc g     F .text	00000040 alt_putchar
0101c220 g     F .text	000007b8 __gethex
01006c8c g     F .text	0000025c executeLoggingSettings
01013d7c g     F .text	00000014 __assert
0100090c g     F .text	000000c0 DrawRectangle
010063d8 g     F .text	00000064 drawObject
01004254 g     F .text	00000424 buildAddressesPage
0102875c g     F .text	00000030 alt_icache_flush_all
01008e00 g     F .text	00000128 validpress
01002c4c g     F .text	000006bc buildMapPage
010279e8 g     F .text	00000078 alt_up_character_lcd_set_cursor_pos
01036fec g     O .rwdata	00000004 alt_priority_mask
0100cc68 g     F .text	00000164 computeCentroid
010067c0 g     F .text	000002c4 executePWSetupPress
010199e8 g     F .text	00000024 __vfprintf_internal
0100f24c g     F .text	00000130 acos
0100bce4 g     F .text	00000120 writeCaptionButton
0100ae78 g     F .text	00000124 readFromSD
010129a0 g     F .text	00000080 __subdf3
0101cf94 g     F .text	000000c4 __lo0bits
01036ff0 g     O .rwdata	00000008 alt_alarm_list
01028428 g     F .text	00000064 _do_ctors
0101e990 g     F .text	00000014 __sigtramp
01027d64 g     F .text	0000003c alt_up_rs232_get_used_space_in_read_FIFO
01006374 g     F .text	00000064 drawButton
010210dc g     F .text	000000fc close
01008064 g     F .text	00000354 executeKeyPress
010216d8 g     F .text	00000080 alt_load
0100b0a0 g     F .text	00000128 loadInfo
01013804 g     F .text	00000314 __pack_d
01023a80 g     F .text	000002ec match_file_record_to_name_ext
0101e854 g     F .text	00000014 raise
01014b0c g     F .text	00000014 free
01013f48 g     F .text	00000004 __sinit_lock_acquire
0100f4ac g     F .text	00000a58 __ieee754_acos
0101dbb0 g     F .text	00000100 __multadd
0101cefc g     F .text	00000028 _Bfree
0100cb54 g     F .text	00000068 v2p



Disassembly of section .entry:

01000000 <__reset>:
#if NIOS2_ICACHE_SIZE > 0 && defined(ALT_ALLOW_CODE_AT_RESET) && !defined(ALT_SIM_OPTIMIZE)
    /* Assume the instruction cache size is always a power of two. */
#if NIOS2_ICACHE_SIZE > 0x8000
    movhi r2, %hi(NIOS2_ICACHE_SIZE)
#else
    movui r2, NIOS2_ICACHE_SIZE
 1000000:	00900014 	movui	r2,16384
#endif

0:
    initi r2
 1000004:	1001483a 	initi	r2
    addi r2, r2, -NIOS2_ICACHE_LINE_SIZE
 1000008:	10bff804 	addi	r2,r2,-32
    bgt r2, zero, 0b
 100000c:	00bffd16 	blt	zero,r2,1000004 <__reset+0x4>
 * Jump to the _start entry point in the .text section if reset code
 * is allowed or if optimizing for RTL simulation.
 */
#if defined(ALT_ALLOW_CODE_AT_RESET) || defined(ALT_SIM_OPTIMIZE)
    /* Jump to the _start entry point in the .text section. */
    movhi r1, %hi(_start)
 1000010:	00404034 	movhi	at,256
    ori r1, r1, %lo(_start)
 1000014:	08406e14 	ori	at,at,440
    jmp r1
 1000018:	0800683a 	jmp	at
 100001c:	00000000 	call	0 <__alt_mem_onchip_memory2_0>

Disassembly of section .exceptions:

01000020 <alt_exception>:
         * Process an exception.  For all exceptions we must preserve all
         * caller saved registers on the stack (See the Nios2 ABI
         * documentation for details).
         */

        addi  sp, sp, -76
 1000020:	deffed04 	addi	sp,sp,-76

#endif

#endif

        stw   ra,  0(sp)
 1000024:	dfc00015 	stw	ra,0(sp)
        /*
         * Leave a gap in the stack frame at 4(sp) for the muldiv handler to
         * store zero into.
         */

        stw   r1,   8(sp)
 1000028:	d8400215 	stw	at,8(sp)
        stw   r2,  12(sp)
 100002c:	d8800315 	stw	r2,12(sp)
        stw   r3,  16(sp)
 1000030:	d8c00415 	stw	r3,16(sp)
        stw   r4,  20(sp)
 1000034:	d9000515 	stw	r4,20(sp)
        stw   r5,  24(sp)
 1000038:	d9400615 	stw	r5,24(sp)
        stw   r6,  28(sp)
 100003c:	d9800715 	stw	r6,28(sp)
        stw   r7,  32(sp)
 1000040:	d9c00815 	stw	r7,32(sp)

        rdctl r5, estatus
 1000044:	000b307a 	rdctl	r5,estatus

        stw   r8,  36(sp)
 1000048:	da000915 	stw	r8,36(sp)
        stw   r9,  40(sp)
 100004c:	da400a15 	stw	r9,40(sp)
        stw   r10, 44(sp)
 1000050:	da800b15 	stw	r10,44(sp)
        stw   r11, 48(sp)
 1000054:	dac00c15 	stw	r11,48(sp)
        stw   r12, 52(sp)
 1000058:	db000d15 	stw	r12,52(sp)
        stw   r13, 56(sp)
 100005c:	db400e15 	stw	r13,56(sp)
        stw   r14, 60(sp)
 1000060:	db800f15 	stw	r14,60(sp)
        stw   r15, 64(sp)
 1000064:	dbc01015 	stw	r15,64(sp)
        /*
         * ea-4 contains the address of the instruction being executed
         * when the exception occured. For interrupt exceptions, we will
         * will be re-issue the isntruction. Store it in 72(sp)
         */
        stw   r5,  68(sp)  /* estatus */
 1000068:	d9401115 	stw	r5,68(sp)
        addi  r15, ea, -4  /* instruction that caused exception */
 100006c:	ebffff04 	addi	r15,ea,-4
        stw   r15,  72(sp)
 1000070:	dbc01215 	stw	r15,72(sp)
#else
        /*
         * Test to see if the exception was a software exception or caused 
         * by an external interrupt, and vector accordingly.
         */
        rdctl r4, ipending
 1000074:	0009313a 	rdctl	r4,ipending
        andi  r2, r5, 1
 1000078:	2880004c 	andi	r2,r5,1
        beq   r2, zero, .Lnot_irq
 100007c:	10000326 	beq	r2,zero,100008c <alt_exception+0x6c>
        beq   r4, zero, .Lnot_irq
 1000080:	20000226 	beq	r4,zero,100008c <alt_exception+0x6c>
        /*
         * Now that all necessary registers have been preserved, call 
         * alt_irq_handler() to process the interrupts.
         */

        call alt_irq_handler
 1000084:	10000ec0 	call	10000ec <alt_irq_handler>

        .section .exceptions.irqreturn, "xa"

        br    .Lexception_exit
 1000088:	00000306 	br	1000098 <alt_exception+0x78>
         * upon completion, so we write ea (address of instruction *after*
         * the one where the exception occured) into 72(sp). The actual
         * instruction that caused the exception is written in r2, which these
         * handlers will utilize.
         */
        stw   ea,  72(sp)  /* Don't re-issue */
 100008c:	df401215 	stw	ea,72(sp)
        ldw   r2, -4(ea)   /* Instruction that caused exception */
 1000090:	e8bfff17 	ldw	r2,-4(ea)
#ifdef NIOS2_HAS_DEBUG_STUB
       /*
        *  Either tell the user now (if there is a debugger attached) or go into
        *  the debug monitor which will loop until a debugger is attached.
        */
        break
 1000094:	003da03a 	break	0
        /* 
         * Restore the saved registers, so that all general purpose registers 
         * have been restored to their state at the time the interrupt occured.
         */

        ldw   r5,  68(sp)
 1000098:	d9401117 	ldw	r5,68(sp)
        ldw   ea,  72(sp)  /* This becomes the PC once eret is executed */
 100009c:	df401217 	ldw	ea,72(sp)
        ldw   ra,   0(sp)
 10000a0:	dfc00017 	ldw	ra,0(sp)

        wrctl estatus, r5
 10000a4:	2801707a 	wrctl	estatus,r5

        ldw   r1,   8(sp)
 10000a8:	d8400217 	ldw	at,8(sp)
        ldw   r2,  12(sp)
 10000ac:	d8800317 	ldw	r2,12(sp)
        ldw   r3,  16(sp)
 10000b0:	d8c00417 	ldw	r3,16(sp)
        ldw   r4,  20(sp)
 10000b4:	d9000517 	ldw	r4,20(sp)
        ldw   r5,  24(sp)
 10000b8:	d9400617 	ldw	r5,24(sp)
        ldw   r6,  28(sp)
 10000bc:	d9800717 	ldw	r6,28(sp)
        ldw   r7,  32(sp)
 10000c0:	d9c00817 	ldw	r7,32(sp)
#ifdef ALT_STACK_CHECK
        ldw   et, %gprel(alt_exception_old_stack_limit)(gp)
#endif
#endif

        ldw   r8,  36(sp)
 10000c4:	da000917 	ldw	r8,36(sp)
        ldw   r9,  40(sp)
 10000c8:	da400a17 	ldw	r9,40(sp)
        ldw   r10, 44(sp)
 10000cc:	da800b17 	ldw	r10,44(sp)
        ldw   r11, 48(sp)
 10000d0:	dac00c17 	ldw	r11,48(sp)
        ldw   r12, 52(sp)
 10000d4:	db000d17 	ldw	r12,52(sp)
        ldw   r13, 56(sp)
 10000d8:	db400e17 	ldw	r13,56(sp)
        ldw   r14, 60(sp)
 10000dc:	db800f17 	ldw	r14,60(sp)
        ldw   r15, 64(sp)
 10000e0:	dbc01017 	ldw	r15,64(sp)
#endif

        ldw   sp,  76(sp)

#else
        addi  sp, sp, 76
 10000e4:	dec01304 	addi	sp,sp,76

        /*
         * Return to the interrupted instruction.
         */

        eret
 10000e8:	ef80083a 	eret

010000ec <alt_irq_handler>:
 * instruction is present if the macro ALT_CI_INTERRUPT_VECTOR defined.
 */

void alt_irq_handler (void) __attribute__ ((section (".exceptions")));
void alt_irq_handler (void)
{
 10000ec:	defff904 	addi	sp,sp,-28
 10000f0:	dfc00615 	stw	ra,24(sp)
 10000f4:	df000515 	stw	fp,20(sp)
 10000f8:	df000504 	addi	fp,sp,20
#ifndef NIOS2_EIC_PRESENT
static ALT_INLINE alt_u32 ALT_ALWAYS_INLINE alt_irq_pending (void)
{
  alt_u32 active;

  NIOS2_READ_IPENDING (active);
 10000fc:	0005313a 	rdctl	r2,ipending
 1000100:	e0bffc15 	stw	r2,-16(fp)

  return active;
 1000104:	e0bffc17 	ldw	r2,-16(fp)
   * Consider the case where the high priority interupt is asserted during
   * the interrupt entry sequence for a lower priority interrupt to see why
   * this is the case.
   */

  active = alt_irq_pending ();
 1000108:	e0bfff15 	stw	r2,-4(fp)

  do
  {
    i = 0;
 100010c:	e03ffd15 	stw	zero,-12(fp)
    mask = 1;
 1000110:	00800044 	movi	r2,1
 1000114:	e0bffe15 	stw	r2,-8(fp)
     * called to clear the interrupt condition.
     */

    do
    {
      if (active & mask)
 1000118:	e0ffff17 	ldw	r3,-4(fp)
 100011c:	e0bffe17 	ldw	r2,-8(fp)
 1000120:	1884703a 	and	r2,r3,r2
 1000124:	1005003a 	cmpeq	r2,r2,zero
 1000128:	1000171e 	bne	r2,zero,1000188 <alt_irq_handler+0x9c>
      { 
#ifdef ALT_ENHANCED_INTERRUPT_API_PRESENT
        alt_irq[i].handler(alt_irq[i].context); 
#else
        alt_irq[i].handler(alt_irq[i].context, i); 
 100012c:	e0bffd17 	ldw	r2,-12(fp)
 1000130:	00c04134 	movhi	r3,260
 1000134:	18e4f704 	addi	r3,r3,-27684
 1000138:	100490fa 	slli	r2,r2,3
 100013c:	10c5883a 	add	r2,r2,r3
 1000140:	11800017 	ldw	r6,0(r2)
 1000144:	e0bffd17 	ldw	r2,-12(fp)
 1000148:	00c04134 	movhi	r3,260
 100014c:	18e4f704 	addi	r3,r3,-27684
 1000150:	100490fa 	slli	r2,r2,3
 1000154:	10c5883a 	add	r2,r2,r3
 1000158:	10800104 	addi	r2,r2,4
 100015c:	11000017 	ldw	r4,0(r2)
 1000160:	e17ffd17 	ldw	r5,-12(fp)
 1000164:	303ee83a 	callr	r6
#ifndef NIOS2_EIC_PRESENT
static ALT_INLINE alt_u32 ALT_ALWAYS_INLINE alt_irq_pending (void)
{
  alt_u32 active;

  NIOS2_READ_IPENDING (active);
 1000168:	0005313a 	rdctl	r2,ipending
 100016c:	e0bffb15 	stw	r2,-20(fp)

  return active;
 1000170:	e0bffb17 	ldw	r2,-20(fp)
      mask <<= 1;
      i++;

    } while (1);

    active = alt_irq_pending ();
 1000174:	e0bfff15 	stw	r2,-4(fp)
    
  } while (active);
 1000178:	e0bfff17 	ldw	r2,-4(fp)
 100017c:	1004c03a 	cmpne	r2,r2,zero
 1000180:	103fe21e 	bne	r2,zero,100010c <alt_irq_handler+0x20>
 1000184:	00000706 	br	10001a4 <alt_irq_handler+0xb8>
#else
        alt_irq[i].handler(alt_irq[i].context, i); 
#endif
        break;
      }
      mask <<= 1;
 1000188:	e0bffe17 	ldw	r2,-8(fp)
 100018c:	1085883a 	add	r2,r2,r2
 1000190:	e0bffe15 	stw	r2,-8(fp)
      i++;
 1000194:	e0bffd17 	ldw	r2,-12(fp)
 1000198:	10800044 	addi	r2,r2,1
 100019c:	e0bffd15 	stw	r2,-12(fp)

    } while (1);
 10001a0:	003fdd06 	br	1000118 <alt_irq_handler+0x2c>
  /*
   * Notify the operating system that interrupt processing is complete.
   */ 

  ALT_OS_INT_EXIT();
}
 10001a4:	e037883a 	mov	sp,fp
 10001a8:	dfc00117 	ldw	ra,4(sp)
 10001ac:	df000017 	ldw	fp,0(sp)
 10001b0:	dec00204 	addi	sp,sp,8
 10001b4:	f800283a 	ret

Disassembly of section .text:

010001b8 <_start>:

    /* Assume the data cache size is always a power of two. */
#if NIOS2_DCACHE_SIZE > 0x8000
    movhi r2, %hi(NIOS2_DCACHE_SIZE)
#else
    movui r2, NIOS2_DCACHE_SIZE
 10001b8:	00820014 	movui	r2,2048
#endif

0:
    initd 0(r2)
 10001bc:	10000033 	initd	0(r2)
    addi r2, r2, -NIOS2_DCACHE_LINE_SIZE
 10001c0:	10bff804 	addi	r2,r2,-32
    bgt r2, zero, 0b
 10001c4:	00bffd16 	blt	zero,r2,10001bc <_start+0x4>
#if (NIOS2_NUM_OF_SHADOW_REG_SETS == 0)    
    /*
     * Now that the caches are initialized, set up the stack pointer.
     * The value provided by the linker is assumed to be correctly aligned.
     */
    movhi sp, %hi(__alt_stack_pointer)
 10001c8:	06c06034 	movhi	sp,384
    ori sp, sp, %lo(__alt_stack_pointer)
 10001cc:	dec00014 	ori	sp,sp,0

    /* Set up the global pointer. */
    movhi gp, %hi(_gp)
 10001d0:	068040f4 	movhi	gp,259
    ori gp, gp, %lo(_gp)
 10001d4:	d6bbea14 	ori	gp,gp,61352
 */
#ifndef ALT_SIM_OPTIMIZE
    /* Log that the BSS is about to be cleared. */
    ALT_LOG_PUTS(alt_log_msg_bss)

    movhi r2, %hi(__bss_start)
 10001d8:	008040f4 	movhi	r2,259
    ori r2, r2, %lo(__bss_start)
 10001dc:	10a2ee14 	ori	r2,r2,35768

    movhi r3, %hi(__bss_end)
 10001e0:	00c040f4 	movhi	r3,259
    ori r3, r3, %lo(__bss_end)
 10001e4:	18e59b14 	ori	r3,r3,38508

    beq r2, r3, 1f
 10001e8:	10c00326 	beq	r2,r3,10001f8 <_start+0x40>

0:
    stw zero, (r2)
 10001ec:	10000015 	stw	zero,0(r2)
    addi r2, r2, 4
 10001f0:	10800104 	addi	r2,r2,4
    bltu r2, r3, 0b
 10001f4:	10fffd36 	bltu	r2,r3,10001ec <_start+0x34>
     * section aren't defined until alt_load() has been called).
     */
    mov   et, zero
#endif

    call alt_load
 10001f8:	10216d80 	call	10216d8 <alt_load>

    /* Log that alt_main is about to be called. */
    ALT_LOG_PUTS(alt_log_msg_alt_main)

    /* Call the C entry point. It should never return. */
    call alt_main
 10001fc:	10219140 	call	1021914 <alt_main>

01000200 <alt_after_alt_main>:

    /* Wait in infinite loop in case alt_main does return. */
alt_after_alt_main:
    br alt_after_alt_main
 1000200:	003fff06 	br	1000200 <alt_after_alt_main>

01000204 <initBluetooth>:
#include "Hardware.h"

void initBluetooth(void) {
 1000204:	deffff04 	addi	sp,sp,-4
 1000208:	df000015 	stw	fp,0(sp)
 100020c:	d839883a 	mov	fp,sp
	// set up 6850 Control Register to utilise a divide by 16 clock,
	// set RTS low, use 8 bits of data, no parity, 1 stop bit,
	// transmitter interrupt disabled
	// program baud rate generator to use 115k baud
	Bluetooth_Baud = 0x01;
 1000210:	00e10034 	movhi	r3,33792
 1000214:	18c08904 	addi	r3,r3,548
 1000218:	00800044 	movi	r2,1
 100021c:	18800005 	stb	r2,0(r3)
	Bluetooth_Control = 0x15; // x16 clock , 8 data , no parity , 1 stop , no interrupt
 1000220:	00e10034 	movhi	r3,33792
 1000224:	18c08804 	addi	r3,r3,544
 1000228:	00800544 	movi	r2,21
 100022c:	18800005 	stb	r2,0(r3)

}
 1000230:	e037883a 	mov	sp,fp
 1000234:	df000017 	ldw	fp,0(sp)
 1000238:	dec00104 	addi	sp,sp,4
 100023c:	f800283a 	ret

01000240 <getcharBluetooth>:

char getcharBluetooth(void) {
 1000240:	defffd04 	addi	sp,sp,-12
 1000244:	dfc00215 	stw	ra,8(sp)
 1000248:	df000115 	stw	fp,4(sp)
 100024c:	df000104 	addi	fp,sp,4
	int rx;
	// poll Rx bit in 6850 status register. Wait for it to become '1'
	// read received character from 6850 RxData register.
	while ((Bluetooth_Status & 0x01) != 0x01);
 1000250:	00a10034 	movhi	r2,33792
 1000254:	10808804 	addi	r2,r2,544
 1000258:	10800003 	ldbu	r2,0(r2)
 100025c:	10803fcc 	andi	r2,r2,255
 1000260:	1080004c 	andi	r2,r2,1
 1000264:	1005003a 	cmpeq	r2,r2,zero
 1000268:	103ff91e 	bne	r2,zero,1000250 <getcharBluetooth+0x10>

	rx = Bluetooth_RxData;
 100026c:	00a10034 	movhi	r2,33792
 1000270:	10808884 	addi	r2,r2,546
 1000274:	10800003 	ldbu	r2,0(r2)
 1000278:	10803fcc 	andi	r2,r2,255
 100027c:	e0bfff15 	stw	r2,-4(fp)
	printf("THIS IS WHAT WE RECIEVE : %c\n", rx);
 1000280:	010040f4 	movhi	r4,259
 1000284:	21242204 	addi	r4,r4,-28536
 1000288:	e17fff17 	ldw	r5,-4(fp)
 100028c:	10155040 	call	1015504 <printf>
	return rx;
 1000290:	e0bfff17 	ldw	r2,-4(fp)
 1000294:	10803fcc 	andi	r2,r2,255
 1000298:	1080201c 	xori	r2,r2,128
 100029c:	10bfe004 	addi	r2,r2,-128
}
 10002a0:	e037883a 	mov	sp,fp
 10002a4:	dfc00117 	ldw	ra,4(sp)
 10002a8:	df000017 	ldw	fp,0(sp)
 10002ac:	dec00204 	addi	sp,sp,8
 10002b0:	f800283a 	ret

010002b4 <putcharBluetooth>:

int putcharBluetooth(char c) {
 10002b4:	defffe04 	addi	sp,sp,-8
 10002b8:	df000115 	stw	fp,4(sp)
 10002bc:	df000104 	addi	fp,sp,4
 10002c0:	e13fff05 	stb	r4,-4(fp)
	// poll Tx bit in 6850 status register. Wait for it to become '1'

	// write 'c' to the 6850 TxData register to output the character

	while ((Bluetooth_Status & 0x02) != 0x02)
 10002c4:	00a10034 	movhi	r2,33792
 10002c8:	10808804 	addi	r2,r2,544
 10002cc:	10800003 	ldbu	r2,0(r2)
 10002d0:	10803fcc 	andi	r2,r2,255
 10002d4:	1080008c 	andi	r2,r2,2
 10002d8:	1005003a 	cmpeq	r2,r2,zero
 10002dc:	103ff91e 	bne	r2,zero,10002c4 <putcharBluetooth+0x10>
		;

	Bluetooth_TxData = c & (char) 0x7F;
 10002e0:	00e10034 	movhi	r3,33792
 10002e4:	18c08884 	addi	r3,r3,546
 10002e8:	e0bfff03 	ldbu	r2,-4(fp)
 10002ec:	10801fcc 	andi	r2,r2,127
 10002f0:	18800005 	stb	r2,0(r3)

	return Bluetooth_TxData; // return c
 10002f4:	00a10034 	movhi	r2,33792
 10002f8:	10808884 	addi	r2,r2,546
 10002fc:	10800003 	ldbu	r2,0(r2)
 1000300:	10803fcc 	andi	r2,r2,255
}
 1000304:	e037883a 	mov	sp,fp
 1000308:	df000017 	ldw	fp,0(sp)
 100030c:	dec00104 	addi	sp,sp,4
 1000310:	f800283a 	ret

01000314 <enterCommandMode>:

void enterCommandMode(void) {
 1000314:	defffd04 	addi	sp,sp,-12
 1000318:	dfc00215 	stw	ra,8(sp)
 100031c:	df000115 	stw	fp,4(sp)
 1000320:	df000104 	addi	fp,sp,4

	char *commandInit = "$$$";
 1000324:	008040f4 	movhi	r2,259
 1000328:	10a42a04 	addi	r2,r2,-28504
 100032c:	e0bfff15 	stw	r2,-4(fp)
	usleep(1000000);
 1000330:	010003f4 	movhi	r4,15
 1000334:	21109004 	addi	r4,r4,16960
 1000338:	10221b80 	call	10221b8 <usleep>
	putStringBluetooth(commandInit);
 100033c:	e13fff17 	ldw	r4,-4(fp)
 1000340:	100043c0 	call	100043c <putStringBluetooth>
	printf("Enter Command Mode\n");
 1000344:	010040f4 	movhi	r4,259
 1000348:	21242b04 	addi	r4,r4,-28500
 100034c:	10156400 	call	1015640 <puts>
	usleep(1000000);
 1000350:	010003f4 	movhi	r4,15
 1000354:	21109004 	addi	r4,r4,16960
 1000358:	10221b80 	call	10221b8 <usleep>
}
 100035c:	e037883a 	mov	sp,fp
 1000360:	dfc00117 	ldw	ra,4(sp)
 1000364:	df000017 	ldw	fp,0(sp)
 1000368:	dec00204 	addi	sp,sp,8
 100036c:	f800283a 	ret

01000370 <setDeviceName>:

void setDeviceName(void) {
 1000370:	defffd04 	addi	sp,sp,-12
 1000374:	dfc00215 	stw	ra,8(sp)
 1000378:	df000115 	stw	fp,4(sp)
 100037c:	df000104 	addi	fp,sp,4

	char *deviceName = "SN,CPEN GROUP 3\r\n";
 1000380:	008040f4 	movhi	r2,259
 1000384:	10a43004 	addi	r2,r2,-28480
 1000388:	e0bfff15 	stw	r2,-4(fp)
	printf("setting device name \n");
 100038c:	010040f4 	movhi	r4,259
 1000390:	21243504 	addi	r4,r4,-28460
 1000394:	10156400 	call	1015640 <puts>
	putStringBluetooth(deviceName);
 1000398:	e13fff17 	ldw	r4,-4(fp)
 100039c:	100043c0 	call	100043c <putStringBluetooth>
}
 10003a0:	e037883a 	mov	sp,fp
 10003a4:	dfc00117 	ldw	ra,4(sp)
 10003a8:	df000017 	ldw	fp,0(sp)
 10003ac:	dec00204 	addi	sp,sp,8
 10003b0:	f800283a 	ret

010003b4 <factoryReset>:

void factoryReset(void) {
 10003b4:	defffd04 	addi	sp,sp,-12
 10003b8:	dfc00215 	stw	ra,8(sp)
 10003bc:	df000115 	stw	fp,4(sp)
 10003c0:	df000104 	addi	fp,sp,4

	char *resetCommand = "SF,1\r\n";
 10003c4:	008040f4 	movhi	r2,259
 10003c8:	10a43b04 	addi	r2,r2,-28436
 10003cc:	e0bfff15 	stw	r2,-4(fp)
	printf("factory resetting \n");
 10003d0:	010040f4 	movhi	r4,259
 10003d4:	21243d04 	addi	r4,r4,-28428
 10003d8:	10156400 	call	1015640 <puts>
	putStringBluetooth(resetCommand);
 10003dc:	e13fff17 	ldw	r4,-4(fp)
 10003e0:	100043c0 	call	100043c <putStringBluetooth>
}
 10003e4:	e037883a 	mov	sp,fp
 10003e8:	dfc00117 	ldw	ra,4(sp)
 10003ec:	df000017 	ldw	fp,0(sp)
 10003f0:	dec00204 	addi	sp,sp,8
 10003f4:	f800283a 	ret

010003f8 <setBluetoothPassword>:

void setBluetoothPassword(void) {
 10003f8:	defffd04 	addi	sp,sp,-12
 10003fc:	dfc00215 	stw	ra,8(sp)
 1000400:	df000115 	stw	fp,4(sp)
 1000404:	df000104 	addi	fp,sp,4

	char *password = "SP,password\r\n";
 1000408:	008040f4 	movhi	r2,259
 100040c:	10a44204 	addi	r2,r2,-28408
 1000410:	e0bfff15 	stw	r2,-4(fp)
	printf("setting device password \n");
 1000414:	010040f4 	movhi	r4,259
 1000418:	21244604 	addi	r4,r4,-28392
 100041c:	10156400 	call	1015640 <puts>
	putStringBluetooth(password);
 1000420:	e13fff17 	ldw	r4,-4(fp)
 1000424:	100043c0 	call	100043c <putStringBluetooth>

}
 1000428:	e037883a 	mov	sp,fp
 100042c:	dfc00117 	ldw	ra,4(sp)
 1000430:	df000017 	ldw	fp,0(sp)
 1000434:	dec00204 	addi	sp,sp,8
 1000438:	f800283a 	ret

0100043c <putStringBluetooth>:

void putStringBluetooth(char *s) {
 100043c:	defffc04 	addi	sp,sp,-16
 1000440:	dfc00315 	stw	ra,12(sp)
 1000444:	df000215 	stw	fp,8(sp)
 1000448:	df000204 	addi	fp,sp,8
 100044c:	e13fff15 	stw	r4,-4(fp)
	char i;
	while ((i = *s) != 0) {
 1000450:	00000506 	br	1000468 <putStringBluetooth+0x2c>

		putcharBluetooth(i);
 1000454:	e13ffe07 	ldb	r4,-8(fp)
 1000458:	10002b40 	call	10002b4 <putcharBluetooth>
		s++;
 100045c:	e0bfff17 	ldw	r2,-4(fp)
 1000460:	10800044 	addi	r2,r2,1
 1000464:	e0bfff15 	stw	r2,-4(fp)

}

void putStringBluetooth(char *s) {
	char i;
	while ((i = *s) != 0) {
 1000468:	e0bfff17 	ldw	r2,-4(fp)
 100046c:	10800003 	ldbu	r2,0(r2)
 1000470:	e0bffe05 	stb	r2,-8(fp)
 1000474:	e0bffe07 	ldb	r2,-8(fp)
 1000478:	1004c03a 	cmpne	r2,r2,zero
 100047c:	103ff51e 	bne	r2,zero,1000454 <putStringBluetooth+0x18>

		putcharBluetooth(i);
		s++;
	}
}
 1000480:	e037883a 	mov	sp,fp
 1000484:	dfc00117 	ldw	ra,4(sp)
 1000488:	df000017 	ldw	fp,0(sp)
 100048c:	dec00204 	addi	sp,sp,8
 1000490:	f800283a 	ret

01000494 <WriteAPixel>:
#include <stdlib.h>
#include <string.h>
#include <time.h>
#include "Hardware.h"

void WriteAPixel(int x, int y, int Colour) {
 1000494:	defffc04 	addi	sp,sp,-16
 1000498:	df000315 	stw	fp,12(sp)
 100049c:	df000304 	addi	fp,sp,12
 10004a0:	e13ffd15 	stw	r4,-12(fp)
 10004a4:	e17ffe15 	stw	r5,-8(fp)
 10004a8:	e1bfff15 	stw	r6,-4(fp)
	WAIT_FOR_GRAPHICS; // is graphics ready for new command
 10004ac:	00a10034 	movhi	r2,33792
 10004b0:	1080000b 	ldhu	r2,0(r2)
 10004b4:	10bfffcc 	andi	r2,r2,65535
 10004b8:	1080004c 	andi	r2,r2,1
 10004bc:	1005003a 	cmpeq	r2,r2,zero
 10004c0:	103ffa1e 	bne	r2,zero,10004ac <WriteAPixel+0x18>

	GraphicsX1Reg = x; // write coords to x1, y1
 10004c4:	00e10034 	movhi	r3,33792
 10004c8:	18c00084 	addi	r3,r3,2
 10004cc:	e0bffd17 	ldw	r2,-12(fp)
 10004d0:	1880000d 	sth	r2,0(r3)
	GraphicsY1Reg = y;
 10004d4:	00e10034 	movhi	r3,33792
 10004d8:	18c00104 	addi	r3,r3,4
 10004dc:	e0bffe17 	ldw	r2,-8(fp)
 10004e0:	1880000d 	sth	r2,0(r3)
	GraphicsColourReg = Colour; // set pixel colour
 10004e4:	00e10034 	movhi	r3,33792
 10004e8:	18c00384 	addi	r3,r3,14
 10004ec:	e0bfff17 	ldw	r2,-4(fp)
 10004f0:	1880000d 	sth	r2,0(r3)
	GraphicsCommandReg = PutAPixel; // give graphics "write pixel" command
 10004f4:	00e10034 	movhi	r3,33792
 10004f8:	00800284 	movi	r2,10
 10004fc:	1880000d 	sth	r2,0(r3)
}
 1000500:	e037883a 	mov	sp,fp
 1000504:	df000017 	ldw	fp,0(sp)
 1000508:	dec00104 	addi	sp,sp,4
 100050c:	f800283a 	ret

01000510 <ReadAPixel>:

int ReadAPixel(int x, int y) {
 1000510:	defffd04 	addi	sp,sp,-12
 1000514:	df000215 	stw	fp,8(sp)
 1000518:	df000204 	addi	fp,sp,8
 100051c:	e13ffe15 	stw	r4,-8(fp)
 1000520:	e17fff15 	stw	r5,-4(fp)
	WAIT_FOR_GRAPHICS; // is graphics ready for new command
 1000524:	00a10034 	movhi	r2,33792
 1000528:	1080000b 	ldhu	r2,0(r2)
 100052c:	10bfffcc 	andi	r2,r2,65535
 1000530:	1080004c 	andi	r2,r2,1
 1000534:	1005003a 	cmpeq	r2,r2,zero
 1000538:	103ffa1e 	bne	r2,zero,1000524 <ReadAPixel+0x14>

	GraphicsX1Reg = x; // write coords to x1, y1
 100053c:	00e10034 	movhi	r3,33792
 1000540:	18c00084 	addi	r3,r3,2
 1000544:	e0bffe17 	ldw	r2,-8(fp)
 1000548:	1880000d 	sth	r2,0(r3)
	GraphicsY1Reg = y;
 100054c:	00e10034 	movhi	r3,33792
 1000550:	18c00104 	addi	r3,r3,4
 1000554:	e0bfff17 	ldw	r2,-4(fp)
 1000558:	1880000d 	sth	r2,0(r3)
	GraphicsCommandReg = GetAPixel; // give graphics a "get pixel" command
 100055c:	00e10034 	movhi	r3,33792
 1000560:	008002c4 	movi	r2,11
 1000564:	1880000d 	sth	r2,0(r3)

	WAIT_FOR_GRAPHICS; // is graphics done reading pixel
 1000568:	00a10034 	movhi	r2,33792
 100056c:	1080000b 	ldhu	r2,0(r2)
 1000570:	10bfffcc 	andi	r2,r2,65535
 1000574:	1080004c 	andi	r2,r2,1
 1000578:	1005003a 	cmpeq	r2,r2,zero
 100057c:	103ffa1e 	bne	r2,zero,1000568 <ReadAPixel+0x58>
	return (int) (GraphicsColourReg); // return the palette number (colour)
 1000580:	00a10034 	movhi	r2,33792
 1000584:	10800384 	addi	r2,r2,14
 1000588:	1080000b 	ldhu	r2,0(r2)
 100058c:	10bfffcc 	andi	r2,r2,65535
}
 1000590:	e037883a 	mov	sp,fp
 1000594:	df000017 	ldw	fp,0(sp)
 1000598:	dec00104 	addi	sp,sp,4
 100059c:	f800283a 	ret

010005a0 <ProgramPalette>:

void ProgramPalette(int PaletteNumber, int RGB) {
 10005a0:	defffd04 	addi	sp,sp,-12
 10005a4:	df000215 	stw	fp,8(sp)
 10005a8:	df000204 	addi	fp,sp,8
 10005ac:	e13ffe15 	stw	r4,-8(fp)
 10005b0:	e17fff15 	stw	r5,-4(fp)
	WAIT_FOR_GRAPHICS;
 10005b4:	00a10034 	movhi	r2,33792
 10005b8:	1080000b 	ldhu	r2,0(r2)
 10005bc:	10bfffcc 	andi	r2,r2,65535
 10005c0:	1080004c 	andi	r2,r2,1
 10005c4:	1005003a 	cmpeq	r2,r2,zero
 10005c8:	103ffa1e 	bne	r2,zero,10005b4 <ProgramPalette+0x14>
	GraphicsColourReg = PaletteNumber;
 10005cc:	00e10034 	movhi	r3,33792
 10005d0:	18c00384 	addi	r3,r3,14
 10005d4:	e0bffe17 	ldw	r2,-8(fp)
 10005d8:	1880000d 	sth	r2,0(r3)
	GraphicsX1Reg = RGB >> 16; // program red value in ls.8 bit of X1 reg
 10005dc:	00e10034 	movhi	r3,33792
 10005e0:	18c00084 	addi	r3,r3,2
 10005e4:	e0bfff17 	ldw	r2,-4(fp)
 10005e8:	1005d43a 	srai	r2,r2,16
 10005ec:	1880000d 	sth	r2,0(r3)
	GraphicsY1Reg = RGB; // program green and blue into ls 16 bit of Y1 reg
 10005f0:	00e10034 	movhi	r3,33792
 10005f4:	18c00104 	addi	r3,r3,4
 10005f8:	e0bfff17 	ldw	r2,-4(fp)
 10005fc:	1880000d 	sth	r2,0(r3)
	GraphicsCommandReg = ProgramPaletteColour; // issue command
 1000600:	00e10034 	movhi	r3,33792
 1000604:	00800404 	movi	r2,16
 1000608:	1880000d 	sth	r2,0(r3)
}
 100060c:	e037883a 	mov	sp,fp
 1000610:	df000017 	ldw	fp,0(sp)
 1000614:	dec00104 	addi	sp,sp,4
 1000618:	f800283a 	ret

0100061c <HLine>:

void HLine(int x1, int y1, int length, int Colour) {
 100061c:	defffb04 	addi	sp,sp,-20
 1000620:	df000415 	stw	fp,16(sp)
 1000624:	df000404 	addi	fp,sp,16
 1000628:	e13ffc15 	stw	r4,-16(fp)
 100062c:	e17ffd15 	stw	r5,-12(fp)
 1000630:	e1bffe15 	stw	r6,-8(fp)
 1000634:	e1ffff15 	stw	r7,-4(fp)
	WAIT_FOR_GRAPHICS; // is graphics ready for new command
 1000638:	00a10034 	movhi	r2,33792
 100063c:	1080000b 	ldhu	r2,0(r2)
 1000640:	10bfffcc 	andi	r2,r2,65535
 1000644:	1080004c 	andi	r2,r2,1
 1000648:	1005003a 	cmpeq	r2,r2,zero
 100064c:	103ffa1e 	bne	r2,zero,1000638 <HLine+0x1c>

	GraphicsX1Reg = x1; // write coords to x1, y1
 1000650:	00e10034 	movhi	r3,33792
 1000654:	18c00084 	addi	r3,r3,2
 1000658:	e0bffc17 	ldw	r2,-16(fp)
 100065c:	1880000d 	sth	r2,0(r3)
	GraphicsY1Reg = y1;
 1000660:	00e10034 	movhi	r3,33792
 1000664:	18c00104 	addi	r3,r3,4
 1000668:	e0bffd17 	ldw	r2,-12(fp)
 100066c:	1880000d 	sth	r2,0(r3)
	GraphicsX2Reg = x1 + length;
 1000670:	01210034 	movhi	r4,33792
 1000674:	21000184 	addi	r4,r4,6
 1000678:	e0bffc17 	ldw	r2,-16(fp)
 100067c:	1007883a 	mov	r3,r2
 1000680:	e0bffe17 	ldw	r2,-8(fp)
 1000684:	1885883a 	add	r2,r3,r2
 1000688:	2080000d 	sth	r2,0(r4)
	GraphicsY2Reg = y1;
 100068c:	00e10034 	movhi	r3,33792
 1000690:	18c00204 	addi	r3,r3,8
 1000694:	e0bffd17 	ldw	r2,-12(fp)
 1000698:	1880000d 	sth	r2,0(r3)
	GraphicsColourReg = Colour; // set pixel colour
 100069c:	00e10034 	movhi	r3,33792
 10006a0:	18c00384 	addi	r3,r3,14
 10006a4:	e0bfff17 	ldw	r2,-4(fp)
 10006a8:	1880000d 	sth	r2,0(r3)
	GraphicsCommandReg = DrawHLine; // give graphics "DrawHLine" command
 10006ac:	00e10034 	movhi	r3,33792
 10006b0:	00800044 	movi	r2,1
 10006b4:	1880000d 	sth	r2,0(r3)
}
 10006b8:	e037883a 	mov	sp,fp
 10006bc:	df000017 	ldw	fp,0(sp)
 10006c0:	dec00104 	addi	sp,sp,4
 10006c4:	f800283a 	ret

010006c8 <VLine>:

void VLine(int x1, int y1, int length, int Colour) {
 10006c8:	defffb04 	addi	sp,sp,-20
 10006cc:	df000415 	stw	fp,16(sp)
 10006d0:	df000404 	addi	fp,sp,16
 10006d4:	e13ffc15 	stw	r4,-16(fp)
 10006d8:	e17ffd15 	stw	r5,-12(fp)
 10006dc:	e1bffe15 	stw	r6,-8(fp)
 10006e0:	e1ffff15 	stw	r7,-4(fp)
	WAIT_FOR_GRAPHICS; // is graphics ready for new command
 10006e4:	00a10034 	movhi	r2,33792
 10006e8:	1080000b 	ldhu	r2,0(r2)
 10006ec:	10bfffcc 	andi	r2,r2,65535
 10006f0:	1080004c 	andi	r2,r2,1
 10006f4:	1005003a 	cmpeq	r2,r2,zero
 10006f8:	103ffa1e 	bne	r2,zero,10006e4 <VLine+0x1c>

	GraphicsX1Reg = x1; // write coords to x1, y1
 10006fc:	00e10034 	movhi	r3,33792
 1000700:	18c00084 	addi	r3,r3,2
 1000704:	e0bffc17 	ldw	r2,-16(fp)
 1000708:	1880000d 	sth	r2,0(r3)
	GraphicsY1Reg = y1;
 100070c:	00e10034 	movhi	r3,33792
 1000710:	18c00104 	addi	r3,r3,4
 1000714:	e0bffd17 	ldw	r2,-12(fp)
 1000718:	1880000d 	sth	r2,0(r3)
	GraphicsX2Reg = x1;
 100071c:	00e10034 	movhi	r3,33792
 1000720:	18c00184 	addi	r3,r3,6
 1000724:	e0bffc17 	ldw	r2,-16(fp)
 1000728:	1880000d 	sth	r2,0(r3)
	GraphicsY2Reg = y1 + length;
 100072c:	01210034 	movhi	r4,33792
 1000730:	21000204 	addi	r4,r4,8
 1000734:	e0bffd17 	ldw	r2,-12(fp)
 1000738:	1007883a 	mov	r3,r2
 100073c:	e0bffe17 	ldw	r2,-8(fp)
 1000740:	1885883a 	add	r2,r3,r2
 1000744:	2080000d 	sth	r2,0(r4)
	GraphicsColourReg = Colour; // set pixel colour
 1000748:	00e10034 	movhi	r3,33792
 100074c:	18c00384 	addi	r3,r3,14
 1000750:	e0bfff17 	ldw	r2,-4(fp)
 1000754:	1880000d 	sth	r2,0(r3)
	GraphicsCommandReg = DrawVLine; // give graphics "DrawVLine" command
 1000758:	00e10034 	movhi	r3,33792
 100075c:	00800084 	movi	r2,2
 1000760:	1880000d 	sth	r2,0(r3)
}
 1000764:	e037883a 	mov	sp,fp
 1000768:	df000017 	ldw	fp,0(sp)
 100076c:	dec00104 	addi	sp,sp,4
 1000770:	f800283a 	ret

01000774 <Line>:

void Line(int x1, int y1, int x2, int y2, int Colour) {
 1000774:	defffb04 	addi	sp,sp,-20
 1000778:	df000415 	stw	fp,16(sp)
 100077c:	df000404 	addi	fp,sp,16
 1000780:	e13ffc15 	stw	r4,-16(fp)
 1000784:	e17ffd15 	stw	r5,-12(fp)
 1000788:	e1bffe15 	stw	r6,-8(fp)
 100078c:	e1ffff15 	stw	r7,-4(fp)
	WAIT_FOR_GRAPHICS; // is graphics ready for new command
 1000790:	00a10034 	movhi	r2,33792
 1000794:	1080000b 	ldhu	r2,0(r2)
 1000798:	10bfffcc 	andi	r2,r2,65535
 100079c:	1080004c 	andi	r2,r2,1
 10007a0:	1005003a 	cmpeq	r2,r2,zero
 10007a4:	103ffa1e 	bne	r2,zero,1000790 <Line+0x1c>

	GraphicsX1Reg = x1; // write coords to x1, y1
 10007a8:	00e10034 	movhi	r3,33792
 10007ac:	18c00084 	addi	r3,r3,2
 10007b0:	e0bffc17 	ldw	r2,-16(fp)
 10007b4:	1880000d 	sth	r2,0(r3)
	GraphicsY1Reg = y1;
 10007b8:	00e10034 	movhi	r3,33792
 10007bc:	18c00104 	addi	r3,r3,4
 10007c0:	e0bffd17 	ldw	r2,-12(fp)
 10007c4:	1880000d 	sth	r2,0(r3)
	GraphicsX2Reg = x2;
 10007c8:	00e10034 	movhi	r3,33792
 10007cc:	18c00184 	addi	r3,r3,6
 10007d0:	e0bffe17 	ldw	r2,-8(fp)
 10007d4:	1880000d 	sth	r2,0(r3)
	GraphicsY2Reg = y2;
 10007d8:	00e10034 	movhi	r3,33792
 10007dc:	18c00204 	addi	r3,r3,8
 10007e0:	e0bfff17 	ldw	r2,-4(fp)
 10007e4:	1880000d 	sth	r2,0(r3)
	GraphicsColourReg = Colour; // set pixel colour
 10007e8:	00e10034 	movhi	r3,33792
 10007ec:	18c00384 	addi	r3,r3,14
 10007f0:	e0800117 	ldw	r2,4(fp)
 10007f4:	1880000d 	sth	r2,0(r3)
	GraphicsCommandReg = DrawLine; // give graphics "DrawLine" command
 10007f8:	00e10034 	movhi	r3,33792
 10007fc:	008000c4 	movi	r2,3
 1000800:	1880000d 	sth	r2,0(r3)
}
 1000804:	e037883a 	mov	sp,fp
 1000808:	df000017 	ldw	fp,0(sp)
 100080c:	dec00104 	addi	sp,sp,4
 1000810:	f800283a 	ret

01000814 <DrawRectangleFill>:

void DrawRectangleFill(int x1, int x2, int y1, int y2, int borderColour,
		int fillColour) {
 1000814:	defff704 	addi	sp,sp,-36
 1000818:	dfc00815 	stw	ra,32(sp)
 100081c:	df000715 	stw	fp,28(sp)
 1000820:	df000704 	addi	fp,sp,28
 1000824:	e13ffc15 	stw	r4,-16(fp)
 1000828:	e17ffd15 	stw	r5,-12(fp)
 100082c:	e1bffe15 	stw	r6,-8(fp)
 1000830:	e1ffff15 	stw	r7,-4(fp)
	int j;
	int h_length = x2 - x1;
 1000834:	e0fffd17 	ldw	r3,-12(fp)
 1000838:	e0bffc17 	ldw	r2,-16(fp)
 100083c:	1885c83a 	sub	r2,r3,r2
 1000840:	e0bffa15 	stw	r2,-24(fp)
	int v_length = y2 - y1;
 1000844:	e0ffff17 	ldw	r3,-4(fp)
 1000848:	e0bffe17 	ldw	r2,-8(fp)
 100084c:	1885c83a 	sub	r2,r3,r2
 1000850:	e0bff915 	stw	r2,-28(fp)

	WAIT_FOR_GRAPHICS;
 1000854:	00a10034 	movhi	r2,33792
 1000858:	1080000b 	ldhu	r2,0(r2)
 100085c:	10bfffcc 	andi	r2,r2,65535
 1000860:	1080004c 	andi	r2,r2,1
 1000864:	1005003a 	cmpeq	r2,r2,zero
 1000868:	103ffa1e 	bne	r2,zero,1000854 <DrawRectangleFill+0x40>

	for (j = y1; j < y2; j++) {
 100086c:	e0bffe17 	ldw	r2,-8(fp)
 1000870:	e0bffb15 	stw	r2,-20(fp)
 1000874:	00000806 	br	1000898 <DrawRectangleFill+0x84>
		HLine(x1, j, h_length, fillColour);
 1000878:	e13ffc17 	ldw	r4,-16(fp)
 100087c:	e17ffb17 	ldw	r5,-20(fp)
 1000880:	e1bffa17 	ldw	r6,-24(fp)
 1000884:	e1c00317 	ldw	r7,12(fp)
 1000888:	100061c0 	call	100061c <HLine>
	int h_length = x2 - x1;
	int v_length = y2 - y1;

	WAIT_FOR_GRAPHICS;

	for (j = y1; j < y2; j++) {
 100088c:	e0bffb17 	ldw	r2,-20(fp)
 1000890:	10800044 	addi	r2,r2,1
 1000894:	e0bffb15 	stw	r2,-20(fp)
 1000898:	e0fffb17 	ldw	r3,-20(fp)
 100089c:	e0bfff17 	ldw	r2,-4(fp)
 10008a0:	18bff516 	blt	r3,r2,1000878 <DrawRectangleFill+0x64>
		HLine(x1, j, h_length, fillColour);
	}
	HLine(x1, y1, h_length, borderColour);
 10008a4:	e13ffc17 	ldw	r4,-16(fp)
 10008a8:	e17ffe17 	ldw	r5,-8(fp)
 10008ac:	e1bffa17 	ldw	r6,-24(fp)
 10008b0:	e1c00217 	ldw	r7,8(fp)
 10008b4:	100061c0 	call	100061c <HLine>
	HLine(x1, y2, h_length, borderColour);
 10008b8:	e13ffc17 	ldw	r4,-16(fp)
 10008bc:	e17fff17 	ldw	r5,-4(fp)
 10008c0:	e1bffa17 	ldw	r6,-24(fp)
 10008c4:	e1c00217 	ldw	r7,8(fp)
 10008c8:	100061c0 	call	100061c <HLine>
	VLine(x1, y1, v_length, borderColour);
 10008cc:	e13ffc17 	ldw	r4,-16(fp)
 10008d0:	e17ffe17 	ldw	r5,-8(fp)
 10008d4:	e1bff917 	ldw	r6,-28(fp)
 10008d8:	e1c00217 	ldw	r7,8(fp)
 10008dc:	10006c80 	call	10006c8 <VLine>
	VLine(x2, y1, v_length + 1, borderColour);
 10008e0:	e0bff917 	ldw	r2,-28(fp)
 10008e4:	11800044 	addi	r6,r2,1
 10008e8:	e13ffd17 	ldw	r4,-12(fp)
 10008ec:	e17ffe17 	ldw	r5,-8(fp)
 10008f0:	e1c00217 	ldw	r7,8(fp)
 10008f4:	10006c80 	call	10006c8 <VLine>
}
 10008f8:	e037883a 	mov	sp,fp
 10008fc:	dfc00117 	ldw	ra,4(sp)
 1000900:	df000017 	ldw	fp,0(sp)
 1000904:	dec00204 	addi	sp,sp,8
 1000908:	f800283a 	ret

0100090c <DrawRectangle>:

void DrawRectangle(int x1, int x2, int y1, int y2, int borderColour) {
 100090c:	defff804 	addi	sp,sp,-32
 1000910:	dfc00715 	stw	ra,28(sp)
 1000914:	df000615 	stw	fp,24(sp)
 1000918:	df000604 	addi	fp,sp,24
 100091c:	e13ffc15 	stw	r4,-16(fp)
 1000920:	e17ffd15 	stw	r5,-12(fp)
 1000924:	e1bffe15 	stw	r6,-8(fp)
 1000928:	e1ffff15 	stw	r7,-4(fp)
	//int j;
	int h_length = x2 - x1;
 100092c:	e0fffd17 	ldw	r3,-12(fp)
 1000930:	e0bffc17 	ldw	r2,-16(fp)
 1000934:	1885c83a 	sub	r2,r3,r2
 1000938:	e0bffb15 	stw	r2,-20(fp)
	int v_length = y2 - y1;
 100093c:	e0ffff17 	ldw	r3,-4(fp)
 1000940:	e0bffe17 	ldw	r2,-8(fp)
 1000944:	1885c83a 	sub	r2,r3,r2
 1000948:	e0bffa15 	stw	r2,-24(fp)

	WAIT_FOR_GRAPHICS;
 100094c:	00a10034 	movhi	r2,33792
 1000950:	1080000b 	ldhu	r2,0(r2)
 1000954:	10bfffcc 	andi	r2,r2,65535
 1000958:	1080004c 	andi	r2,r2,1
 100095c:	1005003a 	cmpeq	r2,r2,zero
 1000960:	103ffa1e 	bne	r2,zero,100094c <DrawRectangle+0x40>

	HLine(x1, y1, h_length, borderColour);
 1000964:	e13ffc17 	ldw	r4,-16(fp)
 1000968:	e17ffe17 	ldw	r5,-8(fp)
 100096c:	e1bffb17 	ldw	r6,-20(fp)
 1000970:	e1c00217 	ldw	r7,8(fp)
 1000974:	100061c0 	call	100061c <HLine>
	HLine(x1, y2, h_length, borderColour);
 1000978:	e13ffc17 	ldw	r4,-16(fp)
 100097c:	e17fff17 	ldw	r5,-4(fp)
 1000980:	e1bffb17 	ldw	r6,-20(fp)
 1000984:	e1c00217 	ldw	r7,8(fp)
 1000988:	100061c0 	call	100061c <HLine>
	VLine(x1, y1, v_length, borderColour);
 100098c:	e13ffc17 	ldw	r4,-16(fp)
 1000990:	e17ffe17 	ldw	r5,-8(fp)
 1000994:	e1bffa17 	ldw	r6,-24(fp)
 1000998:	e1c00217 	ldw	r7,8(fp)
 100099c:	10006c80 	call	10006c8 <VLine>
	VLine(x2, y1, v_length + 1, borderColour);
 10009a0:	e0bffa17 	ldw	r2,-24(fp)
 10009a4:	11800044 	addi	r6,r2,1
 10009a8:	e13ffd17 	ldw	r4,-12(fp)
 10009ac:	e17ffe17 	ldw	r5,-8(fp)
 10009b0:	e1c00217 	ldw	r7,8(fp)
 10009b4:	10006c80 	call	10006c8 <VLine>
}
 10009b8:	e037883a 	mov	sp,fp
 10009bc:	dfc00117 	ldw	ra,4(sp)
 10009c0:	df000017 	ldw	fp,0(sp)
 10009c4:	dec00204 	addi	sp,sp,8
 10009c8:	f800283a 	ret

010009cc <DrawTriangles>:

void DrawTriangles(int x1, int y1, int x2, int y2, int x3, int y3,
		int borderColour) {
 10009cc:	defff904 	addi	sp,sp,-28
 10009d0:	dfc00615 	stw	ra,24(sp)
 10009d4:	df000515 	stw	fp,20(sp)
 10009d8:	df000504 	addi	fp,sp,20
 10009dc:	e13ffc15 	stw	r4,-16(fp)
 10009e0:	e17ffd15 	stw	r5,-12(fp)
 10009e4:	e1bffe15 	stw	r6,-8(fp)
 10009e8:	e1ffff15 	stw	r7,-4(fp)

	WAIT_FOR_GRAPHICS;
 10009ec:	00a10034 	movhi	r2,33792
 10009f0:	1080000b 	ldhu	r2,0(r2)
 10009f4:	10bfffcc 	andi	r2,r2,65535
 10009f8:	1080004c 	andi	r2,r2,1
 10009fc:	1005003a 	cmpeq	r2,r2,zero
 1000a00:	103ffa1e 	bne	r2,zero,10009ec <DrawTriangles+0x20>

	Line(x1, y1, x2, y2, borderColour);
 1000a04:	e0800417 	ldw	r2,16(fp)
 1000a08:	d8800015 	stw	r2,0(sp)
 1000a0c:	e13ffc17 	ldw	r4,-16(fp)
 1000a10:	e17ffd17 	ldw	r5,-12(fp)
 1000a14:	e1bffe17 	ldw	r6,-8(fp)
 1000a18:	e1ffff17 	ldw	r7,-4(fp)
 1000a1c:	10007740 	call	1000774 <Line>
	Line(x2, y2, x3, y3, borderColour);
 1000a20:	e0800417 	ldw	r2,16(fp)
 1000a24:	d8800015 	stw	r2,0(sp)
 1000a28:	e13ffe17 	ldw	r4,-8(fp)
 1000a2c:	e17fff17 	ldw	r5,-4(fp)
 1000a30:	e1800217 	ldw	r6,8(fp)
 1000a34:	e1c00317 	ldw	r7,12(fp)
 1000a38:	10007740 	call	1000774 <Line>
	Line(x3, y3, x1, y1, borderColour);
 1000a3c:	e0800417 	ldw	r2,16(fp)
 1000a40:	d8800015 	stw	r2,0(sp)
 1000a44:	e1000217 	ldw	r4,8(fp)
 1000a48:	e1400317 	ldw	r5,12(fp)
 1000a4c:	e1bffc17 	ldw	r6,-16(fp)
 1000a50:	e1fffd17 	ldw	r7,-12(fp)
 1000a54:	10007740 	call	1000774 <Line>
}
 1000a58:	e037883a 	mov	sp,fp
 1000a5c:	dfc00117 	ldw	ra,4(sp)
 1000a60:	df000017 	ldw	fp,0(sp)
 1000a64:	dec00204 	addi	sp,sp,8
 1000a68:	f800283a 	ret

01000a6c <DrawCircle>:

void DrawCircle(int x0, int y0, int radius, int COLOUR) {
 1000a6c:	defff704 	addi	sp,sp,-36
 1000a70:	dfc00815 	stw	ra,32(sp)
 1000a74:	df000715 	stw	fp,28(sp)
 1000a78:	df000704 	addi	fp,sp,28
 1000a7c:	e13ffc15 	stw	r4,-16(fp)
 1000a80:	e17ffd15 	stw	r5,-12(fp)
 1000a84:	e1bffe15 	stw	r6,-8(fp)
 1000a88:	e1ffff15 	stw	r7,-4(fp)
	int x = radius;
 1000a8c:	e0bffe17 	ldw	r2,-8(fp)
 1000a90:	e0bffb15 	stw	r2,-20(fp)
	int y = 0;
 1000a94:	e03ffa15 	stw	zero,-24(fp)
	int decisionOver2 = 1 - x; // Decision criterion divided by 2 evaluated at x=r, y=0
 1000a98:	00c00044 	movi	r3,1
 1000a9c:	e0bffb17 	ldw	r2,-20(fp)
 1000aa0:	1885c83a 	sub	r2,r3,r2
 1000aa4:	e0bff915 	stw	r2,-28(fp)

	WAIT_FOR_GRAPHICS;
 1000aa8:	00a10034 	movhi	r2,33792
 1000aac:	1080000b 	ldhu	r2,0(r2)
 1000ab0:	10bfffcc 	andi	r2,r2,65535
 1000ab4:	1080004c 	andi	r2,r2,1
 1000ab8:	1005003a 	cmpeq	r2,r2,zero
 1000abc:	103ffa1e 	bne	r2,zero,1000aa8 <DrawCircle+0x3c>

	while (y <= x) {
 1000ac0:	00005a06 	br	1000c2c <DrawCircle+0x1c0>

		WriteAPixel(x + x0, y + y0, COLOUR); // Octant 1
 1000ac4:	e0fffb17 	ldw	r3,-20(fp)
 1000ac8:	e0bffc17 	ldw	r2,-16(fp)
 1000acc:	1889883a 	add	r4,r3,r2
 1000ad0:	e0fffa17 	ldw	r3,-24(fp)
 1000ad4:	e0bffd17 	ldw	r2,-12(fp)
 1000ad8:	188b883a 	add	r5,r3,r2
 1000adc:	e1bfff17 	ldw	r6,-4(fp)
 1000ae0:	10004940 	call	1000494 <WriteAPixel>
		WriteAPixel(y + x0, x + y0, COLOUR); // Octant 2
 1000ae4:	e0fffa17 	ldw	r3,-24(fp)
 1000ae8:	e0bffc17 	ldw	r2,-16(fp)
 1000aec:	1889883a 	add	r4,r3,r2
 1000af0:	e0fffb17 	ldw	r3,-20(fp)
 1000af4:	e0bffd17 	ldw	r2,-12(fp)
 1000af8:	188b883a 	add	r5,r3,r2
 1000afc:	e1bfff17 	ldw	r6,-4(fp)
 1000b00:	10004940 	call	1000494 <WriteAPixel>
		WriteAPixel(-x + x0, y + y0, COLOUR); // Octant 4
 1000b04:	e0fffc17 	ldw	r3,-16(fp)
 1000b08:	e0bffb17 	ldw	r2,-20(fp)
 1000b0c:	1889c83a 	sub	r4,r3,r2
 1000b10:	e0fffa17 	ldw	r3,-24(fp)
 1000b14:	e0bffd17 	ldw	r2,-12(fp)
 1000b18:	188b883a 	add	r5,r3,r2
 1000b1c:	e1bfff17 	ldw	r6,-4(fp)
 1000b20:	10004940 	call	1000494 <WriteAPixel>
		WriteAPixel(-y + x0, x + y0, COLOUR); // Octant 3
 1000b24:	e0fffc17 	ldw	r3,-16(fp)
 1000b28:	e0bffa17 	ldw	r2,-24(fp)
 1000b2c:	1889c83a 	sub	r4,r3,r2
 1000b30:	e0fffb17 	ldw	r3,-20(fp)
 1000b34:	e0bffd17 	ldw	r2,-12(fp)
 1000b38:	188b883a 	add	r5,r3,r2
 1000b3c:	e1bfff17 	ldw	r6,-4(fp)
 1000b40:	10004940 	call	1000494 <WriteAPixel>
		WriteAPixel(-x + x0, -y + y0, COLOUR); // Octant 5
 1000b44:	e0fffc17 	ldw	r3,-16(fp)
 1000b48:	e0bffb17 	ldw	r2,-20(fp)
 1000b4c:	1889c83a 	sub	r4,r3,r2
 1000b50:	e0fffd17 	ldw	r3,-12(fp)
 1000b54:	e0bffa17 	ldw	r2,-24(fp)
 1000b58:	188bc83a 	sub	r5,r3,r2
 1000b5c:	e1bfff17 	ldw	r6,-4(fp)
 1000b60:	10004940 	call	1000494 <WriteAPixel>
		WriteAPixel(-y + x0, -x + y0, COLOUR); // Octant 6
 1000b64:	e0fffc17 	ldw	r3,-16(fp)
 1000b68:	e0bffa17 	ldw	r2,-24(fp)
 1000b6c:	1889c83a 	sub	r4,r3,r2
 1000b70:	e0fffd17 	ldw	r3,-12(fp)
 1000b74:	e0bffb17 	ldw	r2,-20(fp)
 1000b78:	188bc83a 	sub	r5,r3,r2
 1000b7c:	e1bfff17 	ldw	r6,-4(fp)
 1000b80:	10004940 	call	1000494 <WriteAPixel>
		WriteAPixel(x + x0, -y + y0, COLOUR); // Octant 7
 1000b84:	e0fffb17 	ldw	r3,-20(fp)
 1000b88:	e0bffc17 	ldw	r2,-16(fp)
 1000b8c:	1889883a 	add	r4,r3,r2
 1000b90:	e0fffd17 	ldw	r3,-12(fp)
 1000b94:	e0bffa17 	ldw	r2,-24(fp)
 1000b98:	188bc83a 	sub	r5,r3,r2
 1000b9c:	e1bfff17 	ldw	r6,-4(fp)
 1000ba0:	10004940 	call	1000494 <WriteAPixel>
		WriteAPixel(y + x0, -x + y0, COLOUR); // Octant 8
 1000ba4:	e0fffa17 	ldw	r3,-24(fp)
 1000ba8:	e0bffc17 	ldw	r2,-16(fp)
 1000bac:	1889883a 	add	r4,r3,r2
 1000bb0:	e0fffd17 	ldw	r3,-12(fp)
 1000bb4:	e0bffb17 	ldw	r2,-20(fp)
 1000bb8:	188bc83a 	sub	r5,r3,r2
 1000bbc:	e1bfff17 	ldw	r6,-4(fp)
 1000bc0:	10004940 	call	1000494 <WriteAPixel>
		y++;
 1000bc4:	e0bffa17 	ldw	r2,-24(fp)
 1000bc8:	10800044 	addi	r2,r2,1
 1000bcc:	e0bffa15 	stw	r2,-24(fp)
		if (decisionOver2 <= 0) {
 1000bd0:	e0bff917 	ldw	r2,-28(fp)
 1000bd4:	10800048 	cmpgei	r2,r2,1
 1000bd8:	1000081e 	bne	r2,zero,1000bfc <DrawCircle+0x190>
			decisionOver2 += 2 * y + 1; // Change in decision criterion for y -> y+1
 1000bdc:	e0bffa17 	ldw	r2,-24(fp)
 1000be0:	1085883a 	add	r2,r2,r2
 1000be4:	1007883a 	mov	r3,r2
 1000be8:	e0bff917 	ldw	r2,-28(fp)
 1000bec:	1885883a 	add	r2,r3,r2
 1000bf0:	10800044 	addi	r2,r2,1
 1000bf4:	e0bff915 	stw	r2,-28(fp)
 1000bf8:	00000c06 	br	1000c2c <DrawCircle+0x1c0>
		} else {
			x--;
 1000bfc:	e0bffb17 	ldw	r2,-20(fp)
 1000c00:	10bfffc4 	addi	r2,r2,-1
 1000c04:	e0bffb15 	stw	r2,-20(fp)
			decisionOver2 += 2 * (y - x) + 1; // Change for y -> y+1, x -> x-1
 1000c08:	e0fffa17 	ldw	r3,-24(fp)
 1000c0c:	e0bffb17 	ldw	r2,-20(fp)
 1000c10:	1885c83a 	sub	r2,r3,r2
 1000c14:	1085883a 	add	r2,r2,r2
 1000c18:	1007883a 	mov	r3,r2
 1000c1c:	e0bff917 	ldw	r2,-28(fp)
 1000c20:	1885883a 	add	r2,r3,r2
 1000c24:	10800044 	addi	r2,r2,1
 1000c28:	e0bff915 	stw	r2,-28(fp)
	int y = 0;
	int decisionOver2 = 1 - x; // Decision criterion divided by 2 evaluated at x=r, y=0

	WAIT_FOR_GRAPHICS;

	while (y <= x) {
 1000c2c:	e0fffa17 	ldw	r3,-24(fp)
 1000c30:	e0bffb17 	ldw	r2,-20(fp)
 1000c34:	10ffa30e 	bge	r2,r3,1000ac4 <DrawCircle+0x58>
		} else {
			x--;
			decisionOver2 += 2 * (y - x) + 1; // Change for y -> y+1, x -> x-1
		}
	}
}
 1000c38:	e037883a 	mov	sp,fp
 1000c3c:	dfc00117 	ldw	ra,4(sp)
 1000c40:	df000017 	ldw	fp,0(sp)
 1000c44:	dec00204 	addi	sp,sp,8
 1000c48:	f800283a 	ret

01000c4c <DrawCircleFill>:

void DrawCircleFill(int x0, int y0, int radius, int COLOUR) {
 1000c4c:	defff604 	addi	sp,sp,-40
 1000c50:	dfc00915 	stw	ra,36(sp)
 1000c54:	df000815 	stw	fp,32(sp)
 1000c58:	df000804 	addi	fp,sp,32
 1000c5c:	e13ffc15 	stw	r4,-16(fp)
 1000c60:	e17ffd15 	stw	r5,-12(fp)
 1000c64:	e1bffe15 	stw	r6,-8(fp)
 1000c68:	e1ffff15 	stw	r7,-4(fp)
	int x = radius;
 1000c6c:	e0bffe17 	ldw	r2,-8(fp)
 1000c70:	e0bffb15 	stw	r2,-20(fp)
	int y = 0;
 1000c74:	e03ffa15 	stw	zero,-24(fp)
	int decisionOver2 = 1 - x; // Decision criterion divided by 2 evaluated at x=r, y=0
 1000c78:	00c00044 	movi	r3,1
 1000c7c:	e0bffb17 	ldw	r2,-20(fp)
 1000c80:	1885c83a 	sub	r2,r3,r2
 1000c84:	e0bff915 	stw	r2,-28(fp)

	WAIT_FOR_GRAPHICS;
 1000c88:	00a10034 	movhi	r2,33792
 1000c8c:	1080000b 	ldhu	r2,0(r2)
 1000c90:	10bfffcc 	andi	r2,r2,65535
 1000c94:	1080004c 	andi	r2,r2,1
 1000c98:	1005003a 	cmpeq	r2,r2,zero
 1000c9c:	103ffa1e 	bne	r2,zero,1000c88 <DrawCircleFill+0x3c>

	while (y <= x) {
 1000ca0:	00007206 	br	1000e6c <DrawCircleFill+0x220>

		Line(x0, y0, x + x0, y + y0, COLOUR); // Octant 1
 1000ca4:	e0fffb17 	ldw	r3,-20(fp)
 1000ca8:	e0bffc17 	ldw	r2,-16(fp)
 1000cac:	188d883a 	add	r6,r3,r2
 1000cb0:	e0fffa17 	ldw	r3,-24(fp)
 1000cb4:	e0bffd17 	ldw	r2,-12(fp)
 1000cb8:	188f883a 	add	r7,r3,r2
 1000cbc:	e0bfff17 	ldw	r2,-4(fp)
 1000cc0:	d8800015 	stw	r2,0(sp)
 1000cc4:	e13ffc17 	ldw	r4,-16(fp)
 1000cc8:	e17ffd17 	ldw	r5,-12(fp)
 1000ccc:	10007740 	call	1000774 <Line>
		Line(x0, y0, y + x0, x + y0, COLOUR); // Octant 2
 1000cd0:	e0fffa17 	ldw	r3,-24(fp)
 1000cd4:	e0bffc17 	ldw	r2,-16(fp)
 1000cd8:	188d883a 	add	r6,r3,r2
 1000cdc:	e0fffb17 	ldw	r3,-20(fp)
 1000ce0:	e0bffd17 	ldw	r2,-12(fp)
 1000ce4:	188f883a 	add	r7,r3,r2
 1000ce8:	e0bfff17 	ldw	r2,-4(fp)
 1000cec:	d8800015 	stw	r2,0(sp)
 1000cf0:	e13ffc17 	ldw	r4,-16(fp)
 1000cf4:	e17ffd17 	ldw	r5,-12(fp)
 1000cf8:	10007740 	call	1000774 <Line>
		Line(x0, y0, -x + x0, y + y0, COLOUR); // Octant 4
 1000cfc:	e0fffc17 	ldw	r3,-16(fp)
 1000d00:	e0bffb17 	ldw	r2,-20(fp)
 1000d04:	188dc83a 	sub	r6,r3,r2
 1000d08:	e0fffa17 	ldw	r3,-24(fp)
 1000d0c:	e0bffd17 	ldw	r2,-12(fp)
 1000d10:	188f883a 	add	r7,r3,r2
 1000d14:	e0bfff17 	ldw	r2,-4(fp)
 1000d18:	d8800015 	stw	r2,0(sp)
 1000d1c:	e13ffc17 	ldw	r4,-16(fp)
 1000d20:	e17ffd17 	ldw	r5,-12(fp)
 1000d24:	10007740 	call	1000774 <Line>
		Line(x0, y0, -y + x0, x + y0, COLOUR); // Octant 3
 1000d28:	e0fffc17 	ldw	r3,-16(fp)
 1000d2c:	e0bffa17 	ldw	r2,-24(fp)
 1000d30:	188dc83a 	sub	r6,r3,r2
 1000d34:	e0fffb17 	ldw	r3,-20(fp)
 1000d38:	e0bffd17 	ldw	r2,-12(fp)
 1000d3c:	188f883a 	add	r7,r3,r2
 1000d40:	e0bfff17 	ldw	r2,-4(fp)
 1000d44:	d8800015 	stw	r2,0(sp)
 1000d48:	e13ffc17 	ldw	r4,-16(fp)
 1000d4c:	e17ffd17 	ldw	r5,-12(fp)
 1000d50:	10007740 	call	1000774 <Line>
		Line(x0, y0, -x + x0, -y + y0, COLOUR); // Octant 5
 1000d54:	e0fffc17 	ldw	r3,-16(fp)
 1000d58:	e0bffb17 	ldw	r2,-20(fp)
 1000d5c:	188dc83a 	sub	r6,r3,r2
 1000d60:	e0fffd17 	ldw	r3,-12(fp)
 1000d64:	e0bffa17 	ldw	r2,-24(fp)
 1000d68:	188fc83a 	sub	r7,r3,r2
 1000d6c:	e0bfff17 	ldw	r2,-4(fp)
 1000d70:	d8800015 	stw	r2,0(sp)
 1000d74:	e13ffc17 	ldw	r4,-16(fp)
 1000d78:	e17ffd17 	ldw	r5,-12(fp)
 1000d7c:	10007740 	call	1000774 <Line>
		Line(x0, y0, -y + x0, -x + y0, COLOUR); // Octant 6
 1000d80:	e0fffc17 	ldw	r3,-16(fp)
 1000d84:	e0bffa17 	ldw	r2,-24(fp)
 1000d88:	188dc83a 	sub	r6,r3,r2
 1000d8c:	e0fffd17 	ldw	r3,-12(fp)
 1000d90:	e0bffb17 	ldw	r2,-20(fp)
 1000d94:	188fc83a 	sub	r7,r3,r2
 1000d98:	e0bfff17 	ldw	r2,-4(fp)
 1000d9c:	d8800015 	stw	r2,0(sp)
 1000da0:	e13ffc17 	ldw	r4,-16(fp)
 1000da4:	e17ffd17 	ldw	r5,-12(fp)
 1000da8:	10007740 	call	1000774 <Line>
		Line(x0, y0, x + x0, -y + y0, COLOUR); // Octant 7
 1000dac:	e0fffb17 	ldw	r3,-20(fp)
 1000db0:	e0bffc17 	ldw	r2,-16(fp)
 1000db4:	188d883a 	add	r6,r3,r2
 1000db8:	e0fffd17 	ldw	r3,-12(fp)
 1000dbc:	e0bffa17 	ldw	r2,-24(fp)
 1000dc0:	188fc83a 	sub	r7,r3,r2
 1000dc4:	e0bfff17 	ldw	r2,-4(fp)
 1000dc8:	d8800015 	stw	r2,0(sp)
 1000dcc:	e13ffc17 	ldw	r4,-16(fp)
 1000dd0:	e17ffd17 	ldw	r5,-12(fp)
 1000dd4:	10007740 	call	1000774 <Line>
		Line(x0, y0, y + x0, -x + y0, COLOUR); // Octant 8
 1000dd8:	e0fffa17 	ldw	r3,-24(fp)
 1000ddc:	e0bffc17 	ldw	r2,-16(fp)
 1000de0:	188d883a 	add	r6,r3,r2
 1000de4:	e0fffd17 	ldw	r3,-12(fp)
 1000de8:	e0bffb17 	ldw	r2,-20(fp)
 1000dec:	188fc83a 	sub	r7,r3,r2
 1000df0:	e0bfff17 	ldw	r2,-4(fp)
 1000df4:	d8800015 	stw	r2,0(sp)
 1000df8:	e13ffc17 	ldw	r4,-16(fp)
 1000dfc:	e17ffd17 	ldw	r5,-12(fp)
 1000e00:	10007740 	call	1000774 <Line>
		y++;
 1000e04:	e0bffa17 	ldw	r2,-24(fp)
 1000e08:	10800044 	addi	r2,r2,1
 1000e0c:	e0bffa15 	stw	r2,-24(fp)
		if (decisionOver2 <= 0) {
 1000e10:	e0bff917 	ldw	r2,-28(fp)
 1000e14:	10800048 	cmpgei	r2,r2,1
 1000e18:	1000081e 	bne	r2,zero,1000e3c <DrawCircleFill+0x1f0>
			decisionOver2 += 2 * y + 1; // Change in decision criterion for y -> y+1
 1000e1c:	e0bffa17 	ldw	r2,-24(fp)
 1000e20:	1085883a 	add	r2,r2,r2
 1000e24:	1007883a 	mov	r3,r2
 1000e28:	e0bff917 	ldw	r2,-28(fp)
 1000e2c:	1885883a 	add	r2,r3,r2
 1000e30:	10800044 	addi	r2,r2,1
 1000e34:	e0bff915 	stw	r2,-28(fp)
 1000e38:	00000c06 	br	1000e6c <DrawCircleFill+0x220>
		} else {
			x--;
 1000e3c:	e0bffb17 	ldw	r2,-20(fp)
 1000e40:	10bfffc4 	addi	r2,r2,-1
 1000e44:	e0bffb15 	stw	r2,-20(fp)
			decisionOver2 += 2 * (y - x) + 1; // Change for y -> y+1, x -> x-1
 1000e48:	e0fffa17 	ldw	r3,-24(fp)
 1000e4c:	e0bffb17 	ldw	r2,-20(fp)
 1000e50:	1885c83a 	sub	r2,r3,r2
 1000e54:	1085883a 	add	r2,r2,r2
 1000e58:	1007883a 	mov	r3,r2
 1000e5c:	e0bff917 	ldw	r2,-28(fp)
 1000e60:	1885883a 	add	r2,r3,r2
 1000e64:	10800044 	addi	r2,r2,1
 1000e68:	e0bff915 	stw	r2,-28(fp)
	int y = 0;
	int decisionOver2 = 1 - x; // Decision criterion divided by 2 evaluated at x=r, y=0

	WAIT_FOR_GRAPHICS;

	while (y <= x) {
 1000e6c:	e0fffa17 	ldw	r3,-24(fp)
 1000e70:	e0bffb17 	ldw	r2,-20(fp)
 1000e74:	10ff8b0e 	bge	r2,r3,1000ca4 <DrawCircleFill+0x58>
		} else {
			x--;
			decisionOver2 += 2 * (y - x) + 1; // Change for y -> y+1, x -> x-1
		}
	}
}
 1000e78:	e037883a 	mov	sp,fp
 1000e7c:	dfc00117 	ldw	ra,4(sp)
 1000e80:	df000017 	ldw	fp,0(sp)
 1000e84:	dec00204 	addi	sp,sp,8
 1000e88:	f800283a 	ret

01000e8c <buildButton>:
#include "Colours.h"
#include <stdlib.h>

void buildButton(int x_centre, int y_centre, int button_width,
		int button_height, int outlineColour, int fillColour, int fontColor,
		char *text, Button * b, int numChar, Page * targetPage) {
 1000e8c:	defffb04 	addi	sp,sp,-20
 1000e90:	df000415 	stw	fp,16(sp)
 1000e94:	df000404 	addi	fp,sp,16
 1000e98:	e13ffc15 	stw	r4,-16(fp)
 1000e9c:	e17ffd15 	stw	r5,-12(fp)
 1000ea0:	e1bffe15 	stw	r6,-8(fp)
 1000ea4:	e1ffff15 	stw	r7,-4(fp)

	b->buttonText = text;
 1000ea8:	e0c00517 	ldw	r3,20(fp)
 1000eac:	e0800417 	ldw	r2,16(fp)
 1000eb0:	18800015 	stw	r2,0(r3)
	b->x1 = x_centre - (button_width / 2);
 1000eb4:	e0fffe17 	ldw	r3,-8(fp)
 1000eb8:	1804d7fa 	srli	r2,r3,31
 1000ebc:	10c5883a 	add	r2,r2,r3
 1000ec0:	1005d07a 	srai	r2,r2,1
 1000ec4:	1007883a 	mov	r3,r2
 1000ec8:	e0bffc17 	ldw	r2,-16(fp)
 1000ecc:	10c7c83a 	sub	r3,r2,r3
 1000ed0:	e0800517 	ldw	r2,20(fp)
 1000ed4:	10c00115 	stw	r3,4(r2)
	b->x2 = x_centre + (button_width / 2);
 1000ed8:	e0fffe17 	ldw	r3,-8(fp)
 1000edc:	1804d7fa 	srli	r2,r3,31
 1000ee0:	10c5883a 	add	r2,r2,r3
 1000ee4:	1005d07a 	srai	r2,r2,1
 1000ee8:	1007883a 	mov	r3,r2
 1000eec:	e0bffc17 	ldw	r2,-16(fp)
 1000ef0:	1887883a 	add	r3,r3,r2
 1000ef4:	e0800517 	ldw	r2,20(fp)
 1000ef8:	10c00215 	stw	r3,8(r2)
	b->y1 = y_centre - (button_height / 2);
 1000efc:	e0ffff17 	ldw	r3,-4(fp)
 1000f00:	1804d7fa 	srli	r2,r3,31
 1000f04:	10c5883a 	add	r2,r2,r3
 1000f08:	1005d07a 	srai	r2,r2,1
 1000f0c:	1007883a 	mov	r3,r2
 1000f10:	e0bffd17 	ldw	r2,-12(fp)
 1000f14:	10c7c83a 	sub	r3,r2,r3
 1000f18:	e0800517 	ldw	r2,20(fp)
 1000f1c:	10c00315 	stw	r3,12(r2)
	b->y2 = y_centre + (button_height / 2);
 1000f20:	e0ffff17 	ldw	r3,-4(fp)
 1000f24:	1804d7fa 	srli	r2,r3,31
 1000f28:	10c5883a 	add	r2,r2,r3
 1000f2c:	1005d07a 	srai	r2,r2,1
 1000f30:	1007883a 	mov	r3,r2
 1000f34:	e0bffd17 	ldw	r2,-12(fp)
 1000f38:	1887883a 	add	r3,r3,r2
 1000f3c:	e0800517 	ldw	r2,20(fp)
 1000f40:	10c00415 	stw	r3,16(r2)
	b->outlineColour = outlineColour;
 1000f44:	e0c00517 	ldw	r3,20(fp)
 1000f48:	e0800117 	ldw	r2,4(fp)
 1000f4c:	18800515 	stw	r2,20(r3)
	b->fillColour = fillColour;
 1000f50:	e0c00517 	ldw	r3,20(fp)
 1000f54:	e0800217 	ldw	r2,8(fp)
 1000f58:	18800615 	stw	r2,24(r3)
	b->fontColour = fontColor;
 1000f5c:	e0c00517 	ldw	r3,20(fp)
 1000f60:	e0800317 	ldw	r2,12(fp)
 1000f64:	18800715 	stw	r2,28(r3)
	b->captionLength = numChar;
 1000f68:	e0c00517 	ldw	r3,20(fp)
 1000f6c:	e0800617 	ldw	r2,24(fp)
 1000f70:	18800815 	stw	r2,32(r3)
	b->targetPage = targetPage;
 1000f74:	e0c00517 	ldw	r3,20(fp)
 1000f78:	e0800717 	ldw	r2,28(fp)
 1000f7c:	18800915 	stw	r2,36(r3)
}
 1000f80:	e037883a 	mov	sp,fp
 1000f84:	df000017 	ldw	fp,0(sp)
 1000f88:	dec00104 	addi	sp,sp,4
 1000f8c:	f800283a 	ret

01000f90 <buildKey>:

void buildKey(int x_centre, int y_centre, int button_width, int button_height,
		int outlineColour, int fillColour, int fontColor, char *text, Key * k,
		int numChar) {
 1000f90:	defffb04 	addi	sp,sp,-20
 1000f94:	df000415 	stw	fp,16(sp)
 1000f98:	df000404 	addi	fp,sp,16
 1000f9c:	e13ffc15 	stw	r4,-16(fp)
 1000fa0:	e17ffd15 	stw	r5,-12(fp)
 1000fa4:	e1bffe15 	stw	r6,-8(fp)
 1000fa8:	e1ffff15 	stw	r7,-4(fp)

	k->alpha = text;
 1000fac:	e0c00517 	ldw	r3,20(fp)
 1000fb0:	e0800417 	ldw	r2,16(fp)
 1000fb4:	18800715 	stw	r2,28(r3)
	k->len = numChar;
 1000fb8:	e0c00517 	ldw	r3,20(fp)
 1000fbc:	e0800617 	ldw	r2,24(fp)
 1000fc0:	18800815 	stw	r2,32(r3)
	k->x1 = x_centre - (button_width / 2);
 1000fc4:	e0fffe17 	ldw	r3,-8(fp)
 1000fc8:	1804d7fa 	srli	r2,r3,31
 1000fcc:	10c5883a 	add	r2,r2,r3
 1000fd0:	1005d07a 	srai	r2,r2,1
 1000fd4:	1007883a 	mov	r3,r2
 1000fd8:	e0bffc17 	ldw	r2,-16(fp)
 1000fdc:	10c7c83a 	sub	r3,r2,r3
 1000fe0:	e0800517 	ldw	r2,20(fp)
 1000fe4:	10c00315 	stw	r3,12(r2)
	k->x2 = x_centre + (button_width / 2);
 1000fe8:	e0fffe17 	ldw	r3,-8(fp)
 1000fec:	1804d7fa 	srli	r2,r3,31
 1000ff0:	10c5883a 	add	r2,r2,r3
 1000ff4:	1005d07a 	srai	r2,r2,1
 1000ff8:	1007883a 	mov	r3,r2
 1000ffc:	e0bffc17 	ldw	r2,-16(fp)
 1001000:	1887883a 	add	r3,r3,r2
 1001004:	e0800517 	ldw	r2,20(fp)
 1001008:	10c00415 	stw	r3,16(r2)
	k->y1 = y_centre - (button_height / 2);
 100100c:	e0ffff17 	ldw	r3,-4(fp)
 1001010:	1804d7fa 	srli	r2,r3,31
 1001014:	10c5883a 	add	r2,r2,r3
 1001018:	1005d07a 	srai	r2,r2,1
 100101c:	1007883a 	mov	r3,r2
 1001020:	e0bffd17 	ldw	r2,-12(fp)
 1001024:	10c7c83a 	sub	r3,r2,r3
 1001028:	e0800517 	ldw	r2,20(fp)
 100102c:	10c00515 	stw	r3,20(r2)
	k->y2 = y_centre + (button_height / 2);
 1001030:	e0ffff17 	ldw	r3,-4(fp)
 1001034:	1804d7fa 	srli	r2,r3,31
 1001038:	10c5883a 	add	r2,r2,r3
 100103c:	1005d07a 	srai	r2,r2,1
 1001040:	1007883a 	mov	r3,r2
 1001044:	e0bffd17 	ldw	r2,-12(fp)
 1001048:	1887883a 	add	r3,r3,r2
 100104c:	e0800517 	ldw	r2,20(fp)
 1001050:	10c00615 	stw	r3,24(r2)
	k->keyOutlineColour = outlineColour;
 1001054:	e0c00517 	ldw	r3,20(fp)
 1001058:	e0800117 	ldw	r2,4(fp)
 100105c:	18800115 	stw	r2,4(r3)
	k->keyFillColour = fillColour;
 1001060:	e0c00517 	ldw	r3,20(fp)
 1001064:	e0800217 	ldw	r2,8(fp)
 1001068:	18800215 	stw	r2,8(r3)
	k->fontColour = fontColor;
 100106c:	e0c00517 	ldw	r3,20(fp)
 1001070:	e0800317 	ldw	r2,12(fp)
 1001074:	18800015 	stw	r2,0(r3)

}
 1001078:	e037883a 	mov	sp,fp
 100107c:	df000017 	ldw	fp,0(sp)
 1001080:	dec00104 	addi	sp,sp,4
 1001084:	f800283a 	ret

01001088 <buildKeyboard>:

Keyboard buildKeyboard(Keyboard *kb) {
 1001088:	deffe704 	addi	sp,sp,-100
 100108c:	dfc01815 	stw	ra,96(sp)
 1001090:	df001715 	stw	fp,92(sp)
 1001094:	df001704 	addi	fp,sp,92
 1001098:	e13fff15 	stw	r4,-4(fp)
 100109c:	e17ffe15 	stw	r5,-8(fp)

	int i, j;
	Key *k, *space, *numbutton, *caps, *backspace, *lower, *donebutton;

	// build lower-case keyset
	kb->spacebar = malloc(sizeof(Key));
 10010a0:	01000a04 	movi	r4,40
 10010a4:	1014b200 	call	1014b20 <malloc>
 10010a8:	1007883a 	mov	r3,r2
 10010ac:	e0bffe17 	ldw	r2,-8(fp)
 10010b0:	10c04c15 	stw	r3,304(r2)
	kb->keyset_lowercase = malloc(sizeof(Key) * ALPHA_SIZE);
 10010b4:	01015e04 	movi	r4,1400
 10010b8:	1014b200 	call	1014b20 <malloc>
 10010bc:	1007883a 	mov	r3,r2
 10010c0:	e0bffe17 	ldw	r2,-8(fp)
 10010c4:	10c04915 	stw	r3,292(r2)
	j = 0; // indexes into keyset_lowercase
 10010c8:	e03ffc15 	stw	zero,-16(fp)
	for (i = 0; row1_low[i]; i++) { //qwertyuiop
 10010cc:	e03ffd15 	stw	zero,-12(fp)
 10010d0:	00004306 	br	10011e0 <buildKeyboard+0x158>
		k = malloc(sizeof(Key));
 10010d4:	01000a04 	movi	r4,40
 10010d8:	1014b200 	call	1014b20 <malloc>
 10010dc:	e0bffb15 	stw	r2,-20(fp)
		// reserve space of 2 keys for the side keys
		buildKey(80 + 65 * i, 300, 50, 30, BLACK, WHITE, BLACK, row1_low[i], k,
 10010e0:	e0bffd17 	ldw	r2,-12(fp)
 10010e4:	10801064 	muli	r2,r2,65
 10010e8:	11001404 	addi	r4,r2,80
 10010ec:	e0fffd17 	ldw	r3,-12(fp)
 10010f0:	008040f4 	movhi	r2,259
 10010f4:	10a44d04 	addi	r2,r2,-28364
 10010f8:	10c5883a 	add	r2,r2,r3
 10010fc:	10800003 	ldbu	r2,0(r2)
 1001100:	10803fcc 	andi	r2,r2,255
 1001104:	1080201c 	xori	r2,r2,128
 1001108:	10bfe004 	addi	r2,r2,-128
 100110c:	1007883a 	mov	r3,r2
 1001110:	d8000015 	stw	zero,0(sp)
 1001114:	00800044 	movi	r2,1
 1001118:	d8800115 	stw	r2,4(sp)
 100111c:	d8000215 	stw	zero,8(sp)
 1001120:	d8c00315 	stw	r3,12(sp)
 1001124:	e0bffb17 	ldw	r2,-20(fp)
 1001128:	d8800415 	stw	r2,16(sp)
 100112c:	00800044 	movi	r2,1
 1001130:	d8800515 	stw	r2,20(sp)
 1001134:	01404b04 	movi	r5,300
 1001138:	01800c84 	movi	r6,50
 100113c:	01c00784 	movi	r7,30
 1001140:	1000f900 	call	1000f90 <buildKey>
				1);
		k->writeChar = row1_low[i];
 1001144:	e0fffd17 	ldw	r3,-12(fp)
 1001148:	008040f4 	movhi	r2,259
 100114c:	10a44d04 	addi	r2,r2,-28364
 1001150:	10c5883a 	add	r2,r2,r3
 1001154:	10c00003 	ldbu	r3,0(r2)
 1001158:	e0bffb17 	ldw	r2,-20(fp)
 100115c:	10c00905 	stb	r3,36(r2)
		kb->keyset_lowercase[j++] = *k;
 1001160:	e0bffe17 	ldw	r2,-8(fp)
 1001164:	10c04917 	ldw	r3,292(r2)
 1001168:	e0bffc17 	ldw	r2,-16(fp)
 100116c:	10800a24 	muli	r2,r2,40
 1001170:	1889883a 	add	r4,r3,r2
 1001174:	e0fffb17 	ldw	r3,-20(fp)
 1001178:	18800017 	ldw	r2,0(r3)
 100117c:	20800015 	stw	r2,0(r4)
 1001180:	18800117 	ldw	r2,4(r3)
 1001184:	20800115 	stw	r2,4(r4)
 1001188:	18800217 	ldw	r2,8(r3)
 100118c:	20800215 	stw	r2,8(r4)
 1001190:	18800317 	ldw	r2,12(r3)
 1001194:	20800315 	stw	r2,12(r4)
 1001198:	18800417 	ldw	r2,16(r3)
 100119c:	20800415 	stw	r2,16(r4)
 10011a0:	18800517 	ldw	r2,20(r3)
 10011a4:	20800515 	stw	r2,20(r4)
 10011a8:	18800617 	ldw	r2,24(r3)
 10011ac:	20800615 	stw	r2,24(r4)
 10011b0:	18800717 	ldw	r2,28(r3)
 10011b4:	20800715 	stw	r2,28(r4)
 10011b8:	18800817 	ldw	r2,32(r3)
 10011bc:	20800815 	stw	r2,32(r4)
 10011c0:	18800917 	ldw	r2,36(r3)
 10011c4:	20800915 	stw	r2,36(r4)
 10011c8:	e0bffc17 	ldw	r2,-16(fp)
 10011cc:	10800044 	addi	r2,r2,1
 10011d0:	e0bffc15 	stw	r2,-16(fp)

	// build lower-case keyset
	kb->spacebar = malloc(sizeof(Key));
	kb->keyset_lowercase = malloc(sizeof(Key) * ALPHA_SIZE);
	j = 0; // indexes into keyset_lowercase
	for (i = 0; row1_low[i]; i++) { //qwertyuiop
 10011d4:	e0bffd17 	ldw	r2,-12(fp)
 10011d8:	10800044 	addi	r2,r2,1
 10011dc:	e0bffd15 	stw	r2,-12(fp)
 10011e0:	e0fffd17 	ldw	r3,-12(fp)
 10011e4:	008040f4 	movhi	r2,259
 10011e8:	10a44d04 	addi	r2,r2,-28364
 10011ec:	10c5883a 	add	r2,r2,r3
 10011f0:	10800003 	ldbu	r2,0(r2)
 10011f4:	10803fcc 	andi	r2,r2,255
 10011f8:	1080201c 	xori	r2,r2,128
 10011fc:	10bfe004 	addi	r2,r2,-128
 1001200:	1004c03a 	cmpne	r2,r2,zero
 1001204:	103fb31e 	bne	r2,zero,10010d4 <buildKeyboard+0x4c>
				1);
		k->writeChar = row1_low[i];
		kb->keyset_lowercase[j++] = *k;
	}

	for (i = 0; row2_low[i]; i++) { //asdfghjkl;'
 1001208:	e03ffd15 	stw	zero,-12(fp)
 100120c:	00004306 	br	100131c <buildKeyboard+0x294>
		k = malloc(sizeof(Key));
 1001210:	01000a04 	movi	r4,40
 1001214:	1014b200 	call	1014b20 <malloc>
 1001218:	e0bffb15 	stw	r2,-20(fp)
		// shift keys right half a key
		buildKey(90 + 65 * i, 350, 50, 30, BLACK, WHITE, BLACK, row2_low[i], k,
 100121c:	e0bffd17 	ldw	r2,-12(fp)
 1001220:	10801064 	muli	r2,r2,65
 1001224:	11001684 	addi	r4,r2,90
 1001228:	e0fffd17 	ldw	r3,-12(fp)
 100122c:	008040f4 	movhi	r2,259
 1001230:	10a45004 	addi	r2,r2,-28352
 1001234:	10c5883a 	add	r2,r2,r3
 1001238:	10800003 	ldbu	r2,0(r2)
 100123c:	10803fcc 	andi	r2,r2,255
 1001240:	1080201c 	xori	r2,r2,128
 1001244:	10bfe004 	addi	r2,r2,-128
 1001248:	1007883a 	mov	r3,r2
 100124c:	d8000015 	stw	zero,0(sp)
 1001250:	00800044 	movi	r2,1
 1001254:	d8800115 	stw	r2,4(sp)
 1001258:	d8000215 	stw	zero,8(sp)
 100125c:	d8c00315 	stw	r3,12(sp)
 1001260:	e0bffb17 	ldw	r2,-20(fp)
 1001264:	d8800415 	stw	r2,16(sp)
 1001268:	00800044 	movi	r2,1
 100126c:	d8800515 	stw	r2,20(sp)
 1001270:	01405784 	movi	r5,350
 1001274:	01800c84 	movi	r6,50
 1001278:	01c00784 	movi	r7,30
 100127c:	1000f900 	call	1000f90 <buildKey>
				1);
		k->writeChar = row2_low[i];
 1001280:	e0fffd17 	ldw	r3,-12(fp)
 1001284:	008040f4 	movhi	r2,259
 1001288:	10a45004 	addi	r2,r2,-28352
 100128c:	10c5883a 	add	r2,r2,r3
 1001290:	10c00003 	ldbu	r3,0(r2)
 1001294:	e0bffb17 	ldw	r2,-20(fp)
 1001298:	10c00905 	stb	r3,36(r2)
		kb->keyset_lowercase[j++] = *k;
 100129c:	e0bffe17 	ldw	r2,-8(fp)
 10012a0:	10c04917 	ldw	r3,292(r2)
 10012a4:	e0bffc17 	ldw	r2,-16(fp)
 10012a8:	10800a24 	muli	r2,r2,40
 10012ac:	1889883a 	add	r4,r3,r2
 10012b0:	e0fffb17 	ldw	r3,-20(fp)
 10012b4:	18800017 	ldw	r2,0(r3)
 10012b8:	20800015 	stw	r2,0(r4)
 10012bc:	18800117 	ldw	r2,4(r3)
 10012c0:	20800115 	stw	r2,4(r4)
 10012c4:	18800217 	ldw	r2,8(r3)
 10012c8:	20800215 	stw	r2,8(r4)
 10012cc:	18800317 	ldw	r2,12(r3)
 10012d0:	20800315 	stw	r2,12(r4)
 10012d4:	18800417 	ldw	r2,16(r3)
 10012d8:	20800415 	stw	r2,16(r4)
 10012dc:	18800517 	ldw	r2,20(r3)
 10012e0:	20800515 	stw	r2,20(r4)
 10012e4:	18800617 	ldw	r2,24(r3)
 10012e8:	20800615 	stw	r2,24(r4)
 10012ec:	18800717 	ldw	r2,28(r3)
 10012f0:	20800715 	stw	r2,28(r4)
 10012f4:	18800817 	ldw	r2,32(r3)
 10012f8:	20800815 	stw	r2,32(r4)
 10012fc:	18800917 	ldw	r2,36(r3)
 1001300:	20800915 	stw	r2,36(r4)
 1001304:	e0bffc17 	ldw	r2,-16(fp)
 1001308:	10800044 	addi	r2,r2,1
 100130c:	e0bffc15 	stw	r2,-16(fp)
				1);
		k->writeChar = row1_low[i];
		kb->keyset_lowercase[j++] = *k;
	}

	for (i = 0; row2_low[i]; i++) { //asdfghjkl;'
 1001310:	e0bffd17 	ldw	r2,-12(fp)
 1001314:	10800044 	addi	r2,r2,1
 1001318:	e0bffd15 	stw	r2,-12(fp)
 100131c:	e0fffd17 	ldw	r3,-12(fp)
 1001320:	008040f4 	movhi	r2,259
 1001324:	10a45004 	addi	r2,r2,-28352
 1001328:	10c5883a 	add	r2,r2,r3
 100132c:	10800003 	ldbu	r2,0(r2)
 1001330:	10803fcc 	andi	r2,r2,255
 1001334:	1080201c 	xori	r2,r2,128
 1001338:	10bfe004 	addi	r2,r2,-128
 100133c:	1004c03a 	cmpne	r2,r2,zero
 1001340:	103fb31e 	bne	r2,zero,1001210 <buildKeyboard+0x188>
		k->writeChar = row2_low[i];
		kb->keyset_lowercase[j++] = *k;

	}

	for (i = 0; row3_low[i]; i++) { //zxcvbnm,.
 1001344:	e03ffd15 	stw	zero,-12(fp)
 1001348:	00004306 	br	1001458 <buildKeyboard+0x3d0>
		k = malloc(sizeof(Key));
 100134c:	01000a04 	movi	r4,40
 1001350:	1014b200 	call	1014b20 <malloc>
 1001354:	e0bffb15 	stw	r2,-20(fp)
		// shift keys right half a key
		buildKey(95 + 65 * i, 400, 50, 30, BLACK, WHITE, BLACK, row3_low[i], k,
 1001358:	e0bffd17 	ldw	r2,-12(fp)
 100135c:	10801064 	muli	r2,r2,65
 1001360:	110017c4 	addi	r4,r2,95
 1001364:	e0fffd17 	ldw	r3,-12(fp)
 1001368:	008040f4 	movhi	r2,259
 100136c:	10a45304 	addi	r2,r2,-28340
 1001370:	10c5883a 	add	r2,r2,r3
 1001374:	10800003 	ldbu	r2,0(r2)
 1001378:	10803fcc 	andi	r2,r2,255
 100137c:	1080201c 	xori	r2,r2,128
 1001380:	10bfe004 	addi	r2,r2,-128
 1001384:	1007883a 	mov	r3,r2
 1001388:	d8000015 	stw	zero,0(sp)
 100138c:	00800044 	movi	r2,1
 1001390:	d8800115 	stw	r2,4(sp)
 1001394:	d8000215 	stw	zero,8(sp)
 1001398:	d8c00315 	stw	r3,12(sp)
 100139c:	e0bffb17 	ldw	r2,-20(fp)
 10013a0:	d8800415 	stw	r2,16(sp)
 10013a4:	00800044 	movi	r2,1
 10013a8:	d8800515 	stw	r2,20(sp)
 10013ac:	01406404 	movi	r5,400
 10013b0:	01800c84 	movi	r6,50
 10013b4:	01c00784 	movi	r7,30
 10013b8:	1000f900 	call	1000f90 <buildKey>
				1);
		k->writeChar = row3_low[i];
 10013bc:	e0fffd17 	ldw	r3,-12(fp)
 10013c0:	008040f4 	movhi	r2,259
 10013c4:	10a45304 	addi	r2,r2,-28340
 10013c8:	10c5883a 	add	r2,r2,r3
 10013cc:	10c00003 	ldbu	r3,0(r2)
 10013d0:	e0bffb17 	ldw	r2,-20(fp)
 10013d4:	10c00905 	stb	r3,36(r2)
		kb->keyset_lowercase[j++] = *k;
 10013d8:	e0bffe17 	ldw	r2,-8(fp)
 10013dc:	10c04917 	ldw	r3,292(r2)
 10013e0:	e0bffc17 	ldw	r2,-16(fp)
 10013e4:	10800a24 	muli	r2,r2,40
 10013e8:	1889883a 	add	r4,r3,r2
 10013ec:	e0fffb17 	ldw	r3,-20(fp)
 10013f0:	18800017 	ldw	r2,0(r3)
 10013f4:	20800015 	stw	r2,0(r4)
 10013f8:	18800117 	ldw	r2,4(r3)
 10013fc:	20800115 	stw	r2,4(r4)
 1001400:	18800217 	ldw	r2,8(r3)
 1001404:	20800215 	stw	r2,8(r4)
 1001408:	18800317 	ldw	r2,12(r3)
 100140c:	20800315 	stw	r2,12(r4)
 1001410:	18800417 	ldw	r2,16(r3)
 1001414:	20800415 	stw	r2,16(r4)
 1001418:	18800517 	ldw	r2,20(r3)
 100141c:	20800515 	stw	r2,20(r4)
 1001420:	18800617 	ldw	r2,24(r3)
 1001424:	20800615 	stw	r2,24(r4)
 1001428:	18800717 	ldw	r2,28(r3)
 100142c:	20800715 	stw	r2,28(r4)
 1001430:	18800817 	ldw	r2,32(r3)
 1001434:	20800815 	stw	r2,32(r4)
 1001438:	18800917 	ldw	r2,36(r3)
 100143c:	20800915 	stw	r2,36(r4)
 1001440:	e0bffc17 	ldw	r2,-16(fp)
 1001444:	10800044 	addi	r2,r2,1
 1001448:	e0bffc15 	stw	r2,-16(fp)
		k->writeChar = row2_low[i];
		kb->keyset_lowercase[j++] = *k;

	}

	for (i = 0; row3_low[i]; i++) { //zxcvbnm,.
 100144c:	e0bffd17 	ldw	r2,-12(fp)
 1001450:	10800044 	addi	r2,r2,1
 1001454:	e0bffd15 	stw	r2,-12(fp)
 1001458:	e0fffd17 	ldw	r3,-12(fp)
 100145c:	008040f4 	movhi	r2,259
 1001460:	10a45304 	addi	r2,r2,-28340
 1001464:	10c5883a 	add	r2,r2,r3
 1001468:	10800003 	ldbu	r2,0(r2)
 100146c:	10803fcc 	andi	r2,r2,255
 1001470:	1080201c 	xori	r2,r2,128
 1001474:	10bfe004 	addi	r2,r2,-128
 1001478:	1004c03a 	cmpne	r2,r2,zero
 100147c:	103fb31e 	bne	r2,zero,100134c <buildKeyboard+0x2c4>
		k->writeChar = row3_low[i];
		kb->keyset_lowercase[j++] = *k;
	}

	// build upper-case keyset
	kb->keyset_uppercase = malloc(sizeof(Key) * ALPHA_SIZE);
 1001480:	01015e04 	movi	r4,1400
 1001484:	1014b200 	call	1014b20 <malloc>
 1001488:	1007883a 	mov	r3,r2
 100148c:	e0bffe17 	ldw	r2,-8(fp)
 1001490:	10c04a15 	stw	r3,296(r2)
	j = 0; // reset counter
 1001494:	e03ffc15 	stw	zero,-16(fp)

	for (i = 0; row1_caps[i]; i++) { //QWERTYUIOP
 1001498:	e03ffd15 	stw	zero,-12(fp)
 100149c:	00004306 	br	10015ac <buildKeyboard+0x524>
		k = malloc(sizeof(Key));
 10014a0:	01000a04 	movi	r4,40
 10014a4:	1014b200 	call	1014b20 <malloc>
 10014a8:	e0bffb15 	stw	r2,-20(fp)
		// reserve space of 2 keys for the side keys
		buildKey(80 + 65 * i, 300, 50, 30, BLACK, WHITE, BLACK, row1_caps[i], k,
 10014ac:	e0bffd17 	ldw	r2,-12(fp)
 10014b0:	10801064 	muli	r2,r2,65
 10014b4:	11001404 	addi	r4,r2,80
 10014b8:	e0fffd17 	ldw	r3,-12(fp)
 10014bc:	008040f4 	movhi	r2,259
 10014c0:	10a45604 	addi	r2,r2,-28328
 10014c4:	10c5883a 	add	r2,r2,r3
 10014c8:	10800003 	ldbu	r2,0(r2)
 10014cc:	10803fcc 	andi	r2,r2,255
 10014d0:	1080201c 	xori	r2,r2,128
 10014d4:	10bfe004 	addi	r2,r2,-128
 10014d8:	1007883a 	mov	r3,r2
 10014dc:	d8000015 	stw	zero,0(sp)
 10014e0:	00800044 	movi	r2,1
 10014e4:	d8800115 	stw	r2,4(sp)
 10014e8:	d8000215 	stw	zero,8(sp)
 10014ec:	d8c00315 	stw	r3,12(sp)
 10014f0:	e0bffb17 	ldw	r2,-20(fp)
 10014f4:	d8800415 	stw	r2,16(sp)
 10014f8:	00800044 	movi	r2,1
 10014fc:	d8800515 	stw	r2,20(sp)
 1001500:	01404b04 	movi	r5,300
 1001504:	01800c84 	movi	r6,50
 1001508:	01c00784 	movi	r7,30
 100150c:	1000f900 	call	1000f90 <buildKey>
				1);
		k->writeChar = row1_caps[i];
 1001510:	e0fffd17 	ldw	r3,-12(fp)
 1001514:	008040f4 	movhi	r2,259
 1001518:	10a45604 	addi	r2,r2,-28328
 100151c:	10c5883a 	add	r2,r2,r3
 1001520:	10c00003 	ldbu	r3,0(r2)
 1001524:	e0bffb17 	ldw	r2,-20(fp)
 1001528:	10c00905 	stb	r3,36(r2)
		kb->keyset_uppercase[j++] = *k;
 100152c:	e0bffe17 	ldw	r2,-8(fp)
 1001530:	10c04a17 	ldw	r3,296(r2)
 1001534:	e0bffc17 	ldw	r2,-16(fp)
 1001538:	10800a24 	muli	r2,r2,40
 100153c:	1889883a 	add	r4,r3,r2
 1001540:	e0fffb17 	ldw	r3,-20(fp)
 1001544:	18800017 	ldw	r2,0(r3)
 1001548:	20800015 	stw	r2,0(r4)
 100154c:	18800117 	ldw	r2,4(r3)
 1001550:	20800115 	stw	r2,4(r4)
 1001554:	18800217 	ldw	r2,8(r3)
 1001558:	20800215 	stw	r2,8(r4)
 100155c:	18800317 	ldw	r2,12(r3)
 1001560:	20800315 	stw	r2,12(r4)
 1001564:	18800417 	ldw	r2,16(r3)
 1001568:	20800415 	stw	r2,16(r4)
 100156c:	18800517 	ldw	r2,20(r3)
 1001570:	20800515 	stw	r2,20(r4)
 1001574:	18800617 	ldw	r2,24(r3)
 1001578:	20800615 	stw	r2,24(r4)
 100157c:	18800717 	ldw	r2,28(r3)
 1001580:	20800715 	stw	r2,28(r4)
 1001584:	18800817 	ldw	r2,32(r3)
 1001588:	20800815 	stw	r2,32(r4)
 100158c:	18800917 	ldw	r2,36(r3)
 1001590:	20800915 	stw	r2,36(r4)
 1001594:	e0bffc17 	ldw	r2,-16(fp)
 1001598:	10800044 	addi	r2,r2,1
 100159c:	e0bffc15 	stw	r2,-16(fp)

	// build upper-case keyset
	kb->keyset_uppercase = malloc(sizeof(Key) * ALPHA_SIZE);
	j = 0; // reset counter

	for (i = 0; row1_caps[i]; i++) { //QWERTYUIOP
 10015a0:	e0bffd17 	ldw	r2,-12(fp)
 10015a4:	10800044 	addi	r2,r2,1
 10015a8:	e0bffd15 	stw	r2,-12(fp)
 10015ac:	e0fffd17 	ldw	r3,-12(fp)
 10015b0:	008040f4 	movhi	r2,259
 10015b4:	10a45604 	addi	r2,r2,-28328
 10015b8:	10c5883a 	add	r2,r2,r3
 10015bc:	10800003 	ldbu	r2,0(r2)
 10015c0:	10803fcc 	andi	r2,r2,255
 10015c4:	1080201c 	xori	r2,r2,128
 10015c8:	10bfe004 	addi	r2,r2,-128
 10015cc:	1004c03a 	cmpne	r2,r2,zero
 10015d0:	103fb31e 	bne	r2,zero,10014a0 <buildKeyboard+0x418>
				1);
		k->writeChar = row1_caps[i];
		kb->keyset_uppercase[j++] = *k;
	}

	for (i = 0; row2_caps[i]; i++) { //ASDFGHJKL:\"
 10015d4:	e03ffd15 	stw	zero,-12(fp)
 10015d8:	00004306 	br	10016e8 <buildKeyboard+0x660>
		k = malloc(sizeof(Key));
 10015dc:	01000a04 	movi	r4,40
 10015e0:	1014b200 	call	1014b20 <malloc>
 10015e4:	e0bffb15 	stw	r2,-20(fp)
		// shift keys right half a key
		buildKey(90 + 65 * i, 350, 50, 30, BLACK, WHITE, BLACK, row2_caps[i], k,
 10015e8:	e0bffd17 	ldw	r2,-12(fp)
 10015ec:	10801064 	muli	r2,r2,65
 10015f0:	11001684 	addi	r4,r2,90
 10015f4:	e0fffd17 	ldw	r3,-12(fp)
 10015f8:	008040f4 	movhi	r2,259
 10015fc:	10a45904 	addi	r2,r2,-28316
 1001600:	10c5883a 	add	r2,r2,r3
 1001604:	10800003 	ldbu	r2,0(r2)
 1001608:	10803fcc 	andi	r2,r2,255
 100160c:	1080201c 	xori	r2,r2,128
 1001610:	10bfe004 	addi	r2,r2,-128
 1001614:	1007883a 	mov	r3,r2
 1001618:	d8000015 	stw	zero,0(sp)
 100161c:	00800044 	movi	r2,1
 1001620:	d8800115 	stw	r2,4(sp)
 1001624:	d8000215 	stw	zero,8(sp)
 1001628:	d8c00315 	stw	r3,12(sp)
 100162c:	e0bffb17 	ldw	r2,-20(fp)
 1001630:	d8800415 	stw	r2,16(sp)
 1001634:	00800044 	movi	r2,1
 1001638:	d8800515 	stw	r2,20(sp)
 100163c:	01405784 	movi	r5,350
 1001640:	01800c84 	movi	r6,50
 1001644:	01c00784 	movi	r7,30
 1001648:	1000f900 	call	1000f90 <buildKey>
				1);
		k->writeChar = row2_caps[i];
 100164c:	e0fffd17 	ldw	r3,-12(fp)
 1001650:	008040f4 	movhi	r2,259
 1001654:	10a45904 	addi	r2,r2,-28316
 1001658:	10c5883a 	add	r2,r2,r3
 100165c:	10c00003 	ldbu	r3,0(r2)
 1001660:	e0bffb17 	ldw	r2,-20(fp)
 1001664:	10c00905 	stb	r3,36(r2)
		kb->keyset_uppercase[j++] = *k;
 1001668:	e0bffe17 	ldw	r2,-8(fp)
 100166c:	10c04a17 	ldw	r3,296(r2)
 1001670:	e0bffc17 	ldw	r2,-16(fp)
 1001674:	10800a24 	muli	r2,r2,40
 1001678:	1889883a 	add	r4,r3,r2
 100167c:	e0fffb17 	ldw	r3,-20(fp)
 1001680:	18800017 	ldw	r2,0(r3)
 1001684:	20800015 	stw	r2,0(r4)
 1001688:	18800117 	ldw	r2,4(r3)
 100168c:	20800115 	stw	r2,4(r4)
 1001690:	18800217 	ldw	r2,8(r3)
 1001694:	20800215 	stw	r2,8(r4)
 1001698:	18800317 	ldw	r2,12(r3)
 100169c:	20800315 	stw	r2,12(r4)
 10016a0:	18800417 	ldw	r2,16(r3)
 10016a4:	20800415 	stw	r2,16(r4)
 10016a8:	18800517 	ldw	r2,20(r3)
 10016ac:	20800515 	stw	r2,20(r4)
 10016b0:	18800617 	ldw	r2,24(r3)
 10016b4:	20800615 	stw	r2,24(r4)
 10016b8:	18800717 	ldw	r2,28(r3)
 10016bc:	20800715 	stw	r2,28(r4)
 10016c0:	18800817 	ldw	r2,32(r3)
 10016c4:	20800815 	stw	r2,32(r4)
 10016c8:	18800917 	ldw	r2,36(r3)
 10016cc:	20800915 	stw	r2,36(r4)
 10016d0:	e0bffc17 	ldw	r2,-16(fp)
 10016d4:	10800044 	addi	r2,r2,1
 10016d8:	e0bffc15 	stw	r2,-16(fp)
				1);
		k->writeChar = row1_caps[i];
		kb->keyset_uppercase[j++] = *k;
	}

	for (i = 0; row2_caps[i]; i++) { //ASDFGHJKL:\"
 10016dc:	e0bffd17 	ldw	r2,-12(fp)
 10016e0:	10800044 	addi	r2,r2,1
 10016e4:	e0bffd15 	stw	r2,-12(fp)
 10016e8:	e0fffd17 	ldw	r3,-12(fp)
 10016ec:	008040f4 	movhi	r2,259
 10016f0:	10a45904 	addi	r2,r2,-28316
 10016f4:	10c5883a 	add	r2,r2,r3
 10016f8:	10800003 	ldbu	r2,0(r2)
 10016fc:	10803fcc 	andi	r2,r2,255
 1001700:	1080201c 	xori	r2,r2,128
 1001704:	10bfe004 	addi	r2,r2,-128
 1001708:	1004c03a 	cmpne	r2,r2,zero
 100170c:	103fb31e 	bne	r2,zero,10015dc <buildKeyboard+0x554>
		k->writeChar = row2_caps[i];
		kb->keyset_uppercase[j++] = *k;

	}

	for (i = 0; row3_caps[i]; i++) { //ZXCVBNM!?
 1001710:	e03ffd15 	stw	zero,-12(fp)
 1001714:	00004306 	br	1001824 <buildKeyboard+0x79c>
		k = malloc(sizeof(Key));
 1001718:	01000a04 	movi	r4,40
 100171c:	1014b200 	call	1014b20 <malloc>
 1001720:	e0bffb15 	stw	r2,-20(fp)
		// shift keys right half a key
		buildKey(95 + 65 * i, 400, 50, 30, BLACK, WHITE, BLACK, row3_caps[i], k,
 1001724:	e0bffd17 	ldw	r2,-12(fp)
 1001728:	10801064 	muli	r2,r2,65
 100172c:	110017c4 	addi	r4,r2,95
 1001730:	e0fffd17 	ldw	r3,-12(fp)
 1001734:	008040f4 	movhi	r2,259
 1001738:	10a45c04 	addi	r2,r2,-28304
 100173c:	10c5883a 	add	r2,r2,r3
 1001740:	10800003 	ldbu	r2,0(r2)
 1001744:	10803fcc 	andi	r2,r2,255
 1001748:	1080201c 	xori	r2,r2,128
 100174c:	10bfe004 	addi	r2,r2,-128
 1001750:	1007883a 	mov	r3,r2
 1001754:	d8000015 	stw	zero,0(sp)
 1001758:	00800044 	movi	r2,1
 100175c:	d8800115 	stw	r2,4(sp)
 1001760:	d8000215 	stw	zero,8(sp)
 1001764:	d8c00315 	stw	r3,12(sp)
 1001768:	e0bffb17 	ldw	r2,-20(fp)
 100176c:	d8800415 	stw	r2,16(sp)
 1001770:	00800044 	movi	r2,1
 1001774:	d8800515 	stw	r2,20(sp)
 1001778:	01406404 	movi	r5,400
 100177c:	01800c84 	movi	r6,50
 1001780:	01c00784 	movi	r7,30
 1001784:	1000f900 	call	1000f90 <buildKey>
				1);
		k->writeChar = row3_caps[i];
 1001788:	e0fffd17 	ldw	r3,-12(fp)
 100178c:	008040f4 	movhi	r2,259
 1001790:	10a45c04 	addi	r2,r2,-28304
 1001794:	10c5883a 	add	r2,r2,r3
 1001798:	10c00003 	ldbu	r3,0(r2)
 100179c:	e0bffb17 	ldw	r2,-20(fp)
 10017a0:	10c00905 	stb	r3,36(r2)
		kb->keyset_uppercase[j++] = *k;
 10017a4:	e0bffe17 	ldw	r2,-8(fp)
 10017a8:	10c04a17 	ldw	r3,296(r2)
 10017ac:	e0bffc17 	ldw	r2,-16(fp)
 10017b0:	10800a24 	muli	r2,r2,40
 10017b4:	1889883a 	add	r4,r3,r2
 10017b8:	e0fffb17 	ldw	r3,-20(fp)
 10017bc:	18800017 	ldw	r2,0(r3)
 10017c0:	20800015 	stw	r2,0(r4)
 10017c4:	18800117 	ldw	r2,4(r3)
 10017c8:	20800115 	stw	r2,4(r4)
 10017cc:	18800217 	ldw	r2,8(r3)
 10017d0:	20800215 	stw	r2,8(r4)
 10017d4:	18800317 	ldw	r2,12(r3)
 10017d8:	20800315 	stw	r2,12(r4)
 10017dc:	18800417 	ldw	r2,16(r3)
 10017e0:	20800415 	stw	r2,16(r4)
 10017e4:	18800517 	ldw	r2,20(r3)
 10017e8:	20800515 	stw	r2,20(r4)
 10017ec:	18800617 	ldw	r2,24(r3)
 10017f0:	20800615 	stw	r2,24(r4)
 10017f4:	18800717 	ldw	r2,28(r3)
 10017f8:	20800715 	stw	r2,28(r4)
 10017fc:	18800817 	ldw	r2,32(r3)
 1001800:	20800815 	stw	r2,32(r4)
 1001804:	18800917 	ldw	r2,36(r3)
 1001808:	20800915 	stw	r2,36(r4)
 100180c:	e0bffc17 	ldw	r2,-16(fp)
 1001810:	10800044 	addi	r2,r2,1
 1001814:	e0bffc15 	stw	r2,-16(fp)
		k->writeChar = row2_caps[i];
		kb->keyset_uppercase[j++] = *k;

	}

	for (i = 0; row3_caps[i]; i++) { //ZXCVBNM!?
 1001818:	e0bffd17 	ldw	r2,-12(fp)
 100181c:	10800044 	addi	r2,r2,1
 1001820:	e0bffd15 	stw	r2,-12(fp)
 1001824:	e0fffd17 	ldw	r3,-12(fp)
 1001828:	008040f4 	movhi	r2,259
 100182c:	10a45c04 	addi	r2,r2,-28304
 1001830:	10c5883a 	add	r2,r2,r3
 1001834:	10800003 	ldbu	r2,0(r2)
 1001838:	10803fcc 	andi	r2,r2,255
 100183c:	1080201c 	xori	r2,r2,128
 1001840:	10bfe004 	addi	r2,r2,-128
 1001844:	1004c03a 	cmpne	r2,r2,zero
 1001848:	103fb31e 	bne	r2,zero,1001718 <buildKeyboard+0x690>
		buildKey(95 + 65 * i, 400, 50, 30, BLACK, WHITE, BLACK, row3_caps[i], k,
				1);
		k->writeChar = row3_caps[i];
		kb->keyset_uppercase[j++] = *k;
	}
	kb->numberset1 = malloc(sizeof(Key) * NUM_SIZE);
 100184c:	01008204 	movi	r4,520
 1001850:	1014b200 	call	1014b20 <malloc>
 1001854:	1007883a 	mov	r3,r2
 1001858:	e0bffe17 	ldw	r2,-8(fp)
 100185c:	10c04b15 	stw	r3,300(r2)
	j = 0;
 1001860:	e03ffc15 	stw	zero,-16(fp)

	for (i = 0; i < 3; i++) {
 1001864:	e03ffd15 	stw	zero,-12(fp)
 1001868:	00004306 	br	1001978 <buildKeyboard+0x8f0>

		k = malloc(sizeof(Key));
 100186c:	01000a04 	movi	r4,40
 1001870:	1014b200 	call	1014b20 <malloc>
 1001874:	e0bffb15 	stw	r2,-20(fp)
		buildKey(300 + 100 * i, 280, 100, 50, BLACK, WHITE, BLACK, numbers[j],
 1001878:	e0bffd17 	ldw	r2,-12(fp)
 100187c:	10801924 	muli	r2,r2,100
 1001880:	11004b04 	addi	r4,r2,300
 1001884:	e0fffc17 	ldw	r3,-16(fp)
 1001888:	008040f4 	movhi	r2,259
 100188c:	10a45f04 	addi	r2,r2,-28292
 1001890:	10c5883a 	add	r2,r2,r3
 1001894:	10800003 	ldbu	r2,0(r2)
 1001898:	10803fcc 	andi	r2,r2,255
 100189c:	1080201c 	xori	r2,r2,128
 10018a0:	10bfe004 	addi	r2,r2,-128
 10018a4:	1007883a 	mov	r3,r2
 10018a8:	d8000015 	stw	zero,0(sp)
 10018ac:	00800044 	movi	r2,1
 10018b0:	d8800115 	stw	r2,4(sp)
 10018b4:	d8000215 	stw	zero,8(sp)
 10018b8:	d8c00315 	stw	r3,12(sp)
 10018bc:	e0bffb17 	ldw	r2,-20(fp)
 10018c0:	d8800415 	stw	r2,16(sp)
 10018c4:	00800044 	movi	r2,1
 10018c8:	d8800515 	stw	r2,20(sp)
 10018cc:	01404604 	movi	r5,280
 10018d0:	01801904 	movi	r6,100
 10018d4:	01c00c84 	movi	r7,50
 10018d8:	1000f900 	call	1000f90 <buildKey>
				k, 1);
		k->writeChar = (char) numbers[j];
 10018dc:	e0fffc17 	ldw	r3,-16(fp)
 10018e0:	008040f4 	movhi	r2,259
 10018e4:	10a45f04 	addi	r2,r2,-28292
 10018e8:	10c5883a 	add	r2,r2,r3
 10018ec:	10c00003 	ldbu	r3,0(r2)
 10018f0:	e0bffb17 	ldw	r2,-20(fp)
 10018f4:	10c00905 	stb	r3,36(r2)
		kb->numberset1[j++] = *k;
 10018f8:	e0bffe17 	ldw	r2,-8(fp)
 10018fc:	10c04b17 	ldw	r3,300(r2)
 1001900:	e0bffc17 	ldw	r2,-16(fp)
 1001904:	10800a24 	muli	r2,r2,40
 1001908:	1889883a 	add	r4,r3,r2
 100190c:	e0fffb17 	ldw	r3,-20(fp)
 1001910:	18800017 	ldw	r2,0(r3)
 1001914:	20800015 	stw	r2,0(r4)
 1001918:	18800117 	ldw	r2,4(r3)
 100191c:	20800115 	stw	r2,4(r4)
 1001920:	18800217 	ldw	r2,8(r3)
 1001924:	20800215 	stw	r2,8(r4)
 1001928:	18800317 	ldw	r2,12(r3)
 100192c:	20800315 	stw	r2,12(r4)
 1001930:	18800417 	ldw	r2,16(r3)
 1001934:	20800415 	stw	r2,16(r4)
 1001938:	18800517 	ldw	r2,20(r3)
 100193c:	20800515 	stw	r2,20(r4)
 1001940:	18800617 	ldw	r2,24(r3)
 1001944:	20800615 	stw	r2,24(r4)
 1001948:	18800717 	ldw	r2,28(r3)
 100194c:	20800715 	stw	r2,28(r4)
 1001950:	18800817 	ldw	r2,32(r3)
 1001954:	20800815 	stw	r2,32(r4)
 1001958:	18800917 	ldw	r2,36(r3)
 100195c:	20800915 	stw	r2,36(r4)
 1001960:	e0bffc17 	ldw	r2,-16(fp)
 1001964:	10800044 	addi	r2,r2,1
 1001968:	e0bffc15 	stw	r2,-16(fp)
		kb->keyset_uppercase[j++] = *k;
	}
	kb->numberset1 = malloc(sizeof(Key) * NUM_SIZE);
	j = 0;

	for (i = 0; i < 3; i++) {
 100196c:	e0bffd17 	ldw	r2,-12(fp)
 1001970:	10800044 	addi	r2,r2,1
 1001974:	e0bffd15 	stw	r2,-12(fp)
 1001978:	e0bffd17 	ldw	r2,-12(fp)
 100197c:	108000d0 	cmplti	r2,r2,3
 1001980:	103fba1e 	bne	r2,zero,100186c <buildKeyboard+0x7e4>
		k->writeChar = (char) numbers[j];
		kb->numberset1[j++] = *k;

	}

	for (i = 0; i < 3; i++) {
 1001984:	e03ffd15 	stw	zero,-12(fp)
 1001988:	00004306 	br	1001a98 <buildKeyboard+0xa10>

		k = malloc(sizeof(Key));
 100198c:	01000a04 	movi	r4,40
 1001990:	1014b200 	call	1014b20 <malloc>
 1001994:	e0bffb15 	stw	r2,-20(fp)
		buildKey(300 + 100 * i, 340, 100, 50, BLACK, WHITE, BLACK, numbers[j],
 1001998:	e0bffd17 	ldw	r2,-12(fp)
 100199c:	10801924 	muli	r2,r2,100
 10019a0:	11004b04 	addi	r4,r2,300
 10019a4:	e0fffc17 	ldw	r3,-16(fp)
 10019a8:	008040f4 	movhi	r2,259
 10019ac:	10a45f04 	addi	r2,r2,-28292
 10019b0:	10c5883a 	add	r2,r2,r3
 10019b4:	10800003 	ldbu	r2,0(r2)
 10019b8:	10803fcc 	andi	r2,r2,255
 10019bc:	1080201c 	xori	r2,r2,128
 10019c0:	10bfe004 	addi	r2,r2,-128
 10019c4:	1007883a 	mov	r3,r2
 10019c8:	d8000015 	stw	zero,0(sp)
 10019cc:	00800044 	movi	r2,1
 10019d0:	d8800115 	stw	r2,4(sp)
 10019d4:	d8000215 	stw	zero,8(sp)
 10019d8:	d8c00315 	stw	r3,12(sp)
 10019dc:	e0bffb17 	ldw	r2,-20(fp)
 10019e0:	d8800415 	stw	r2,16(sp)
 10019e4:	00800044 	movi	r2,1
 10019e8:	d8800515 	stw	r2,20(sp)
 10019ec:	01405504 	movi	r5,340
 10019f0:	01801904 	movi	r6,100
 10019f4:	01c00c84 	movi	r7,50
 10019f8:	1000f900 	call	1000f90 <buildKey>
				k, 1);
		k->writeChar = numbers[j];
 10019fc:	e0fffc17 	ldw	r3,-16(fp)
 1001a00:	008040f4 	movhi	r2,259
 1001a04:	10a45f04 	addi	r2,r2,-28292
 1001a08:	10c5883a 	add	r2,r2,r3
 1001a0c:	10c00003 	ldbu	r3,0(r2)
 1001a10:	e0bffb17 	ldw	r2,-20(fp)
 1001a14:	10c00905 	stb	r3,36(r2)
		kb->numberset1[j++] = *k;
 1001a18:	e0bffe17 	ldw	r2,-8(fp)
 1001a1c:	10c04b17 	ldw	r3,300(r2)
 1001a20:	e0bffc17 	ldw	r2,-16(fp)
 1001a24:	10800a24 	muli	r2,r2,40
 1001a28:	1889883a 	add	r4,r3,r2
 1001a2c:	e0fffb17 	ldw	r3,-20(fp)
 1001a30:	18800017 	ldw	r2,0(r3)
 1001a34:	20800015 	stw	r2,0(r4)
 1001a38:	18800117 	ldw	r2,4(r3)
 1001a3c:	20800115 	stw	r2,4(r4)
 1001a40:	18800217 	ldw	r2,8(r3)
 1001a44:	20800215 	stw	r2,8(r4)
 1001a48:	18800317 	ldw	r2,12(r3)
 1001a4c:	20800315 	stw	r2,12(r4)
 1001a50:	18800417 	ldw	r2,16(r3)
 1001a54:	20800415 	stw	r2,16(r4)
 1001a58:	18800517 	ldw	r2,20(r3)
 1001a5c:	20800515 	stw	r2,20(r4)
 1001a60:	18800617 	ldw	r2,24(r3)
 1001a64:	20800615 	stw	r2,24(r4)
 1001a68:	18800717 	ldw	r2,28(r3)
 1001a6c:	20800715 	stw	r2,28(r4)
 1001a70:	18800817 	ldw	r2,32(r3)
 1001a74:	20800815 	stw	r2,32(r4)
 1001a78:	18800917 	ldw	r2,36(r3)
 1001a7c:	20800915 	stw	r2,36(r4)
 1001a80:	e0bffc17 	ldw	r2,-16(fp)
 1001a84:	10800044 	addi	r2,r2,1
 1001a88:	e0bffc15 	stw	r2,-16(fp)
		k->writeChar = (char) numbers[j];
		kb->numberset1[j++] = *k;

	}

	for (i = 0; i < 3; i++) {
 1001a8c:	e0bffd17 	ldw	r2,-12(fp)
 1001a90:	10800044 	addi	r2,r2,1
 1001a94:	e0bffd15 	stw	r2,-12(fp)
 1001a98:	e0bffd17 	ldw	r2,-12(fp)
 1001a9c:	108000d0 	cmplti	r2,r2,3
 1001aa0:	103fba1e 	bne	r2,zero,100198c <buildKeyboard+0x904>
		k->writeChar = numbers[j];
		kb->numberset1[j++] = *k;

	}

	for (i = 0; i < 3; i++) {
 1001aa4:	e03ffd15 	stw	zero,-12(fp)
 1001aa8:	00004306 	br	1001bb8 <buildKeyboard+0xb30>

		k = malloc(sizeof(Key));
 1001aac:	01000a04 	movi	r4,40
 1001ab0:	1014b200 	call	1014b20 <malloc>
 1001ab4:	e0bffb15 	stw	r2,-20(fp)
		buildKey(300 + 100 * i, 400, 100, 50, BLACK, WHITE, BLACK, numbers[j],
 1001ab8:	e0bffd17 	ldw	r2,-12(fp)
 1001abc:	10801924 	muli	r2,r2,100
 1001ac0:	11004b04 	addi	r4,r2,300
 1001ac4:	e0fffc17 	ldw	r3,-16(fp)
 1001ac8:	008040f4 	movhi	r2,259
 1001acc:	10a45f04 	addi	r2,r2,-28292
 1001ad0:	10c5883a 	add	r2,r2,r3
 1001ad4:	10800003 	ldbu	r2,0(r2)
 1001ad8:	10803fcc 	andi	r2,r2,255
 1001adc:	1080201c 	xori	r2,r2,128
 1001ae0:	10bfe004 	addi	r2,r2,-128
 1001ae4:	1007883a 	mov	r3,r2
 1001ae8:	d8000015 	stw	zero,0(sp)
 1001aec:	00800044 	movi	r2,1
 1001af0:	d8800115 	stw	r2,4(sp)
 1001af4:	d8000215 	stw	zero,8(sp)
 1001af8:	d8c00315 	stw	r3,12(sp)
 1001afc:	e0bffb17 	ldw	r2,-20(fp)
 1001b00:	d8800415 	stw	r2,16(sp)
 1001b04:	00800044 	movi	r2,1
 1001b08:	d8800515 	stw	r2,20(sp)
 1001b0c:	01406404 	movi	r5,400
 1001b10:	01801904 	movi	r6,100
 1001b14:	01c00c84 	movi	r7,50
 1001b18:	1000f900 	call	1000f90 <buildKey>
				k, 1);
		k->writeChar = numbers[j];
 1001b1c:	e0fffc17 	ldw	r3,-16(fp)
 1001b20:	008040f4 	movhi	r2,259
 1001b24:	10a45f04 	addi	r2,r2,-28292
 1001b28:	10c5883a 	add	r2,r2,r3
 1001b2c:	10c00003 	ldbu	r3,0(r2)
 1001b30:	e0bffb17 	ldw	r2,-20(fp)
 1001b34:	10c00905 	stb	r3,36(r2)
		kb->numberset1[j++] = *k;
 1001b38:	e0bffe17 	ldw	r2,-8(fp)
 1001b3c:	10c04b17 	ldw	r3,300(r2)
 1001b40:	e0bffc17 	ldw	r2,-16(fp)
 1001b44:	10800a24 	muli	r2,r2,40
 1001b48:	1889883a 	add	r4,r3,r2
 1001b4c:	e0fffb17 	ldw	r3,-20(fp)
 1001b50:	18800017 	ldw	r2,0(r3)
 1001b54:	20800015 	stw	r2,0(r4)
 1001b58:	18800117 	ldw	r2,4(r3)
 1001b5c:	20800115 	stw	r2,4(r4)
 1001b60:	18800217 	ldw	r2,8(r3)
 1001b64:	20800215 	stw	r2,8(r4)
 1001b68:	18800317 	ldw	r2,12(r3)
 1001b6c:	20800315 	stw	r2,12(r4)
 1001b70:	18800417 	ldw	r2,16(r3)
 1001b74:	20800415 	stw	r2,16(r4)
 1001b78:	18800517 	ldw	r2,20(r3)
 1001b7c:	20800515 	stw	r2,20(r4)
 1001b80:	18800617 	ldw	r2,24(r3)
 1001b84:	20800615 	stw	r2,24(r4)
 1001b88:	18800717 	ldw	r2,28(r3)
 1001b8c:	20800715 	stw	r2,28(r4)
 1001b90:	18800817 	ldw	r2,32(r3)
 1001b94:	20800815 	stw	r2,32(r4)
 1001b98:	18800917 	ldw	r2,36(r3)
 1001b9c:	20800915 	stw	r2,36(r4)
 1001ba0:	e0bffc17 	ldw	r2,-16(fp)
 1001ba4:	10800044 	addi	r2,r2,1
 1001ba8:	e0bffc15 	stw	r2,-16(fp)
		k->writeChar = numbers[j];
		kb->numberset1[j++] = *k;

	}

	for (i = 0; i < 3; i++) {
 1001bac:	e0bffd17 	ldw	r2,-12(fp)
 1001bb0:	10800044 	addi	r2,r2,1
 1001bb4:	e0bffd15 	stw	r2,-12(fp)
 1001bb8:	e0bffd17 	ldw	r2,-12(fp)
 1001bbc:	108000d0 	cmplti	r2,r2,3
 1001bc0:	103fba1e 	bne	r2,zero,1001aac <buildKeyboard+0xa24>
		k->writeChar = numbers[j];
		kb->numberset1[j++] = *k;

	}

	k = malloc(sizeof(Key));
 1001bc4:	01000a04 	movi	r4,40
 1001bc8:	1014b200 	call	1014b20 <malloc>
 1001bcc:	e0bffb15 	stw	r2,-20(fp)
	buildKey(400, 455, 100, 50, BLACK, WHITE, BLACK, numbers[j], k, 1);
 1001bd0:	e0fffc17 	ldw	r3,-16(fp)
 1001bd4:	008040f4 	movhi	r2,259
 1001bd8:	10a45f04 	addi	r2,r2,-28292
 1001bdc:	10c5883a 	add	r2,r2,r3
 1001be0:	10800003 	ldbu	r2,0(r2)
 1001be4:	10803fcc 	andi	r2,r2,255
 1001be8:	1080201c 	xori	r2,r2,128
 1001bec:	10bfe004 	addi	r2,r2,-128
 1001bf0:	1007883a 	mov	r3,r2
 1001bf4:	d8000015 	stw	zero,0(sp)
 1001bf8:	00800044 	movi	r2,1
 1001bfc:	d8800115 	stw	r2,4(sp)
 1001c00:	d8000215 	stw	zero,8(sp)
 1001c04:	d8c00315 	stw	r3,12(sp)
 1001c08:	e0bffb17 	ldw	r2,-20(fp)
 1001c0c:	d8800415 	stw	r2,16(sp)
 1001c10:	00800044 	movi	r2,1
 1001c14:	d8800515 	stw	r2,20(sp)
 1001c18:	01006404 	movi	r4,400
 1001c1c:	014071c4 	movi	r5,455
 1001c20:	01801904 	movi	r6,100
 1001c24:	01c00c84 	movi	r7,50
 1001c28:	1000f900 	call	1000f90 <buildKey>
	k->writeChar = numbers[j];
 1001c2c:	e0fffc17 	ldw	r3,-16(fp)
 1001c30:	008040f4 	movhi	r2,259
 1001c34:	10a45f04 	addi	r2,r2,-28292
 1001c38:	10c5883a 	add	r2,r2,r3
 1001c3c:	10c00003 	ldbu	r3,0(r2)
 1001c40:	e0bffb17 	ldw	r2,-20(fp)
 1001c44:	10c00905 	stb	r3,36(r2)
	kb->numberset1[j] = *k;
 1001c48:	e0bffe17 	ldw	r2,-8(fp)
 1001c4c:	10c04b17 	ldw	r3,300(r2)
 1001c50:	e0bffc17 	ldw	r2,-16(fp)
 1001c54:	10800a24 	muli	r2,r2,40
 1001c58:	1889883a 	add	r4,r3,r2
 1001c5c:	e0fffb17 	ldw	r3,-20(fp)
 1001c60:	18800017 	ldw	r2,0(r3)
 1001c64:	20800015 	stw	r2,0(r4)
 1001c68:	18800117 	ldw	r2,4(r3)
 1001c6c:	20800115 	stw	r2,4(r4)
 1001c70:	18800217 	ldw	r2,8(r3)
 1001c74:	20800215 	stw	r2,8(r4)
 1001c78:	18800317 	ldw	r2,12(r3)
 1001c7c:	20800315 	stw	r2,12(r4)
 1001c80:	18800417 	ldw	r2,16(r3)
 1001c84:	20800415 	stw	r2,16(r4)
 1001c88:	18800517 	ldw	r2,20(r3)
 1001c8c:	20800515 	stw	r2,20(r4)
 1001c90:	18800617 	ldw	r2,24(r3)
 1001c94:	20800615 	stw	r2,24(r4)
 1001c98:	18800717 	ldw	r2,28(r3)
 1001c9c:	20800715 	stw	r2,28(r4)
 1001ca0:	18800817 	ldw	r2,32(r3)
 1001ca4:	20800815 	stw	r2,32(r4)
 1001ca8:	18800917 	ldw	r2,36(r3)
 1001cac:	20800915 	stw	r2,36(r4)

	char *spacetext = "SPACE";
 1001cb0:	008040f4 	movhi	r2,259
 1001cb4:	10a46204 	addi	r2,r2,-28280
 1001cb8:	e0bff415 	stw	r2,-48(fp)
	space = malloc(sizeof(Key));
 1001cbc:	01000a04 	movi	r4,40
 1001cc0:	1014b200 	call	1014b20 <malloc>
 1001cc4:	e0bffa15 	stw	r2,-24(fp)
	buildKey(400, 450, 350, 30, BLACK, WHITE, BLACK, spacetext, space, 5);
 1001cc8:	d8000015 	stw	zero,0(sp)
 1001ccc:	00800044 	movi	r2,1
 1001cd0:	d8800115 	stw	r2,4(sp)
 1001cd4:	d8000215 	stw	zero,8(sp)
 1001cd8:	e0bff417 	ldw	r2,-48(fp)
 1001cdc:	d8800315 	stw	r2,12(sp)
 1001ce0:	e0bffa17 	ldw	r2,-24(fp)
 1001ce4:	d8800415 	stw	r2,16(sp)
 1001ce8:	00800144 	movi	r2,5
 1001cec:	d8800515 	stw	r2,20(sp)
 1001cf0:	01006404 	movi	r4,400
 1001cf4:	01407084 	movi	r5,450
 1001cf8:	01805784 	movi	r6,350
 1001cfc:	01c00784 	movi	r7,30
 1001d00:	1000f900 	call	1000f90 <buildKey>
	space->writeChar = ' ';
 1001d04:	e0fffa17 	ldw	r3,-24(fp)
 1001d08:	00800804 	movi	r2,32
 1001d0c:	18800905 	stb	r2,36(r3)
	kb->spacebar = space;
 1001d10:	e0fffe17 	ldw	r3,-8(fp)
 1001d14:	e0bffa17 	ldw	r2,-24(fp)
 1001d18:	18804c15 	stw	r2,304(r3)

	char *num = "123";
 1001d1c:	008040f4 	movhi	r2,259
 1001d20:	10a46404 	addi	r2,r2,-28272
 1001d24:	e0bff315 	stw	r2,-52(fp)
	numbutton = malloc(sizeof(Key));
 1001d28:	01000a04 	movi	r4,40
 1001d2c:	1014b200 	call	1014b20 <malloc>
 1001d30:	e0bff915 	stw	r2,-28(fp)
	buildKey(175, 450, 75, 30, BLACK, WHITE, BLACK, num, numbutton, 3);
 1001d34:	d8000015 	stw	zero,0(sp)
 1001d38:	00800044 	movi	r2,1
 1001d3c:	d8800115 	stw	r2,4(sp)
 1001d40:	d8000215 	stw	zero,8(sp)
 1001d44:	e0bff317 	ldw	r2,-52(fp)
 1001d48:	d8800315 	stw	r2,12(sp)
 1001d4c:	e0bff917 	ldw	r2,-28(fp)
 1001d50:	d8800415 	stw	r2,16(sp)
 1001d54:	008000c4 	movi	r2,3
 1001d58:	d8800515 	stw	r2,20(sp)
 1001d5c:	01002bc4 	movi	r4,175
 1001d60:	01407084 	movi	r5,450
 1001d64:	018012c4 	movi	r6,75
 1001d68:	01c00784 	movi	r7,30
 1001d6c:	1000f900 	call	1000f90 <buildKey>
	kb->numbers = numbutton;
 1001d70:	e0fffe17 	ldw	r3,-8(fp)
 1001d74:	e0bff917 	ldw	r2,-28(fp)
 1001d78:	18804d15 	stw	r2,308(r3)

	char *delete = "Delete";
 1001d7c:	008040f4 	movhi	r2,259
 1001d80:	10a46504 	addi	r2,r2,-28268
 1001d84:	e0bff215 	stw	r2,-56(fp)
	backspace = malloc(sizeof(Key));
 1001d88:	01000a04 	movi	r4,40
 1001d8c:	1014b200 	call	1014b20 <malloc>
 1001d90:	e0bff715 	stw	r2,-36(fp)
	buildKey(625, 450, 75, 30, BLACK, WHITE, BLACK, delete, backspace, 6);
 1001d94:	d8000015 	stw	zero,0(sp)
 1001d98:	00800044 	movi	r2,1
 1001d9c:	d8800115 	stw	r2,4(sp)
 1001da0:	d8000215 	stw	zero,8(sp)
 1001da4:	e0bff217 	ldw	r2,-56(fp)
 1001da8:	d8800315 	stw	r2,12(sp)
 1001dac:	e0bff717 	ldw	r2,-36(fp)
 1001db0:	d8800415 	stw	r2,16(sp)
 1001db4:	00800184 	movi	r2,6
 1001db8:	d8800515 	stw	r2,20(sp)
 1001dbc:	01009c44 	movi	r4,625
 1001dc0:	01407084 	movi	r5,450
 1001dc4:	018012c4 	movi	r6,75
 1001dc8:	01c00784 	movi	r7,30
 1001dcc:	1000f900 	call	1000f90 <buildKey>
	kb->backspace = backspace;
 1001dd0:	e0fffe17 	ldw	r3,-8(fp)
 1001dd4:	e0bff717 	ldw	r2,-36(fp)
 1001dd8:	18804f15 	stw	r2,316(r3)

	char *capitals = "ABC";
 1001ddc:	008040f4 	movhi	r2,259
 1001de0:	10a46704 	addi	r2,r2,-28260
 1001de4:	e0bff115 	stw	r2,-60(fp)
	caps = malloc(sizeof(Key));
 1001de8:	01000a04 	movi	r4,40
 1001dec:	1014b200 	call	1014b20 <malloc>
 1001df0:	e0bff815 	stw	r2,-32(fp)
	buildKey(90, 450, 75, 30, BLACK, WHITE, BLACK, capitals, caps, 3);
 1001df4:	d8000015 	stw	zero,0(sp)
 1001df8:	00800044 	movi	r2,1
 1001dfc:	d8800115 	stw	r2,4(sp)
 1001e00:	d8000215 	stw	zero,8(sp)
 1001e04:	e0bff117 	ldw	r2,-60(fp)
 1001e08:	d8800315 	stw	r2,12(sp)
 1001e0c:	e0bff817 	ldw	r2,-32(fp)
 1001e10:	d8800415 	stw	r2,16(sp)
 1001e14:	008000c4 	movi	r2,3
 1001e18:	d8800515 	stw	r2,20(sp)
 1001e1c:	01001684 	movi	r4,90
 1001e20:	01407084 	movi	r5,450
 1001e24:	018012c4 	movi	r6,75
 1001e28:	01c00784 	movi	r7,30
 1001e2c:	1000f900 	call	1000f90 <buildKey>
	kb->caps = caps;
 1001e30:	e0fffe17 	ldw	r3,-8(fp)
 1001e34:	e0bff817 	ldw	r2,-32(fp)
 1001e38:	18804e15 	stw	r2,312(r3)

	char *lowercase = "abc";
 1001e3c:	008040f4 	movhi	r2,259
 1001e40:	10a46804 	addi	r2,r2,-28256
 1001e44:	e0bff015 	stw	r2,-64(fp)
	lower = malloc(sizeof(Key));
 1001e48:	01000a04 	movi	r4,40
 1001e4c:	1014b200 	call	1014b20 <malloc>
 1001e50:	e0bff615 	stw	r2,-40(fp)
	buildKey(90, 450, 75, 30, BLACK, WHITE, BLACK, lowercase, lower, 3);
 1001e54:	d8000015 	stw	zero,0(sp)
 1001e58:	00800044 	movi	r2,1
 1001e5c:	d8800115 	stw	r2,4(sp)
 1001e60:	d8000215 	stw	zero,8(sp)
 1001e64:	e0bff017 	ldw	r2,-64(fp)
 1001e68:	d8800315 	stw	r2,12(sp)
 1001e6c:	e0bff617 	ldw	r2,-40(fp)
 1001e70:	d8800415 	stw	r2,16(sp)
 1001e74:	008000c4 	movi	r2,3
 1001e78:	d8800515 	stw	r2,20(sp)
 1001e7c:	01001684 	movi	r4,90
 1001e80:	01407084 	movi	r5,450
 1001e84:	018012c4 	movi	r6,75
 1001e88:	01c00784 	movi	r7,30
 1001e8c:	1000f900 	call	1000f90 <buildKey>

	char *done = "Done";
 1001e90:	008040f4 	movhi	r2,259
 1001e94:	10a46904 	addi	r2,r2,-28252
 1001e98:	e0bfef15 	stw	r2,-68(fp)
	donebutton = malloc(sizeof(Key));
 1001e9c:	01000a04 	movi	r4,40
 1001ea0:	1014b200 	call	1014b20 <malloc>
 1001ea4:	e0bff515 	stw	r2,-44(fp)
	buildKey(715, 450, 75, 30, BLACK, WHITE, BLACK, done, donebutton, 4);
 1001ea8:	d8000015 	stw	zero,0(sp)
 1001eac:	00800044 	movi	r2,1
 1001eb0:	d8800115 	stw	r2,4(sp)
 1001eb4:	d8000215 	stw	zero,8(sp)
 1001eb8:	e0bfef17 	ldw	r2,-68(fp)
 1001ebc:	d8800315 	stw	r2,12(sp)
 1001ec0:	e0bff517 	ldw	r2,-44(fp)
 1001ec4:	d8800415 	stw	r2,16(sp)
 1001ec8:	00800104 	movi	r2,4
 1001ecc:	d8800515 	stw	r2,20(sp)
 1001ed0:	0100b2c4 	movi	r4,715
 1001ed4:	01407084 	movi	r5,450
 1001ed8:	018012c4 	movi	r6,75
 1001edc:	01c00784 	movi	r7,30
 1001ee0:	1000f900 	call	1000f90 <buildKey>

	kb->numberset1[10] = *backspace;
 1001ee4:	e0bffe17 	ldw	r2,-8(fp)
 1001ee8:	10804b17 	ldw	r2,300(r2)
 1001eec:	11006404 	addi	r4,r2,400
 1001ef0:	e0fff717 	ldw	r3,-36(fp)
 1001ef4:	18800017 	ldw	r2,0(r3)
 1001ef8:	20800015 	stw	r2,0(r4)
 1001efc:	18800117 	ldw	r2,4(r3)
 1001f00:	20800115 	stw	r2,4(r4)
 1001f04:	18800217 	ldw	r2,8(r3)
 1001f08:	20800215 	stw	r2,8(r4)
 1001f0c:	18800317 	ldw	r2,12(r3)
 1001f10:	20800315 	stw	r2,12(r4)
 1001f14:	18800417 	ldw	r2,16(r3)
 1001f18:	20800415 	stw	r2,16(r4)
 1001f1c:	18800517 	ldw	r2,20(r3)
 1001f20:	20800515 	stw	r2,20(r4)
 1001f24:	18800617 	ldw	r2,24(r3)
 1001f28:	20800615 	stw	r2,24(r4)
 1001f2c:	18800717 	ldw	r2,28(r3)
 1001f30:	20800715 	stw	r2,28(r4)
 1001f34:	18800817 	ldw	r2,32(r3)
 1001f38:	20800815 	stw	r2,32(r4)
 1001f3c:	18800917 	ldw	r2,36(r3)
 1001f40:	20800915 	stw	r2,36(r4)
	kb->numberset1[11] = *lower;
 1001f44:	e0bffe17 	ldw	r2,-8(fp)
 1001f48:	10804b17 	ldw	r2,300(r2)
 1001f4c:	11006e04 	addi	r4,r2,440
 1001f50:	e0fff617 	ldw	r3,-40(fp)
 1001f54:	18800017 	ldw	r2,0(r3)
 1001f58:	20800015 	stw	r2,0(r4)
 1001f5c:	18800117 	ldw	r2,4(r3)
 1001f60:	20800115 	stw	r2,4(r4)
 1001f64:	18800217 	ldw	r2,8(r3)
 1001f68:	20800215 	stw	r2,8(r4)
 1001f6c:	18800317 	ldw	r2,12(r3)
 1001f70:	20800315 	stw	r2,12(r4)
 1001f74:	18800417 	ldw	r2,16(r3)
 1001f78:	20800415 	stw	r2,16(r4)
 1001f7c:	18800517 	ldw	r2,20(r3)
 1001f80:	20800515 	stw	r2,20(r4)
 1001f84:	18800617 	ldw	r2,24(r3)
 1001f88:	20800615 	stw	r2,24(r4)
 1001f8c:	18800717 	ldw	r2,28(r3)
 1001f90:	20800715 	stw	r2,28(r4)
 1001f94:	18800817 	ldw	r2,32(r3)
 1001f98:	20800815 	stw	r2,32(r4)
 1001f9c:	18800917 	ldw	r2,36(r3)
 1001fa0:	20800915 	stw	r2,36(r4)
	kb->numberset1[12] = *donebutton;
 1001fa4:	e0bffe17 	ldw	r2,-8(fp)
 1001fa8:	10804b17 	ldw	r2,300(r2)
 1001fac:	11007804 	addi	r4,r2,480
 1001fb0:	e0fff517 	ldw	r3,-44(fp)
 1001fb4:	18800017 	ldw	r2,0(r3)
 1001fb8:	20800015 	stw	r2,0(r4)
 1001fbc:	18800117 	ldw	r2,4(r3)
 1001fc0:	20800115 	stw	r2,4(r4)
 1001fc4:	18800217 	ldw	r2,8(r3)
 1001fc8:	20800215 	stw	r2,8(r4)
 1001fcc:	18800317 	ldw	r2,12(r3)
 1001fd0:	20800315 	stw	r2,12(r4)
 1001fd4:	18800417 	ldw	r2,16(r3)
 1001fd8:	20800415 	stw	r2,16(r4)
 1001fdc:	18800517 	ldw	r2,20(r3)
 1001fe0:	20800515 	stw	r2,20(r4)
 1001fe4:	18800617 	ldw	r2,24(r3)
 1001fe8:	20800615 	stw	r2,24(r4)
 1001fec:	18800717 	ldw	r2,28(r3)
 1001ff0:	20800715 	stw	r2,28(r4)
 1001ff4:	18800817 	ldw	r2,32(r3)
 1001ff8:	20800815 	stw	r2,32(r4)
 1001ffc:	18800917 	ldw	r2,36(r3)
 1002000:	20800915 	stw	r2,36(r4)

	kb->keyset_lowercase[30] = *space;
 1002004:	e0bffe17 	ldw	r2,-8(fp)
 1002008:	10804917 	ldw	r2,292(r2)
 100200c:	11012c04 	addi	r4,r2,1200
 1002010:	e0fffa17 	ldw	r3,-24(fp)
 1002014:	18800017 	ldw	r2,0(r3)
 1002018:	20800015 	stw	r2,0(r4)
 100201c:	18800117 	ldw	r2,4(r3)
 1002020:	20800115 	stw	r2,4(r4)
 1002024:	18800217 	ldw	r2,8(r3)
 1002028:	20800215 	stw	r2,8(r4)
 100202c:	18800317 	ldw	r2,12(r3)
 1002030:	20800315 	stw	r2,12(r4)
 1002034:	18800417 	ldw	r2,16(r3)
 1002038:	20800415 	stw	r2,16(r4)
 100203c:	18800517 	ldw	r2,20(r3)
 1002040:	20800515 	stw	r2,20(r4)
 1002044:	18800617 	ldw	r2,24(r3)
 1002048:	20800615 	stw	r2,24(r4)
 100204c:	18800717 	ldw	r2,28(r3)
 1002050:	20800715 	stw	r2,28(r4)
 1002054:	18800817 	ldw	r2,32(r3)
 1002058:	20800815 	stw	r2,32(r4)
 100205c:	18800917 	ldw	r2,36(r3)
 1002060:	20800915 	stw	r2,36(r4)
	kb->keyset_uppercase[30] = *space;
 1002064:	e0bffe17 	ldw	r2,-8(fp)
 1002068:	10804a17 	ldw	r2,296(r2)
 100206c:	11012c04 	addi	r4,r2,1200
 1002070:	e0fffa17 	ldw	r3,-24(fp)
 1002074:	18800017 	ldw	r2,0(r3)
 1002078:	20800015 	stw	r2,0(r4)
 100207c:	18800117 	ldw	r2,4(r3)
 1002080:	20800115 	stw	r2,4(r4)
 1002084:	18800217 	ldw	r2,8(r3)
 1002088:	20800215 	stw	r2,8(r4)
 100208c:	18800317 	ldw	r2,12(r3)
 1002090:	20800315 	stw	r2,12(r4)
 1002094:	18800417 	ldw	r2,16(r3)
 1002098:	20800415 	stw	r2,16(r4)
 100209c:	18800517 	ldw	r2,20(r3)
 10020a0:	20800515 	stw	r2,20(r4)
 10020a4:	18800617 	ldw	r2,24(r3)
 10020a8:	20800615 	stw	r2,24(r4)
 10020ac:	18800717 	ldw	r2,28(r3)
 10020b0:	20800715 	stw	r2,28(r4)
 10020b4:	18800817 	ldw	r2,32(r3)
 10020b8:	20800815 	stw	r2,32(r4)
 10020bc:	18800917 	ldw	r2,36(r3)
 10020c0:	20800915 	stw	r2,36(r4)

	kb->keyset_lowercase[31] = *backspace;
 10020c4:	e0bffe17 	ldw	r2,-8(fp)
 10020c8:	10804917 	ldw	r2,292(r2)
 10020cc:	11013604 	addi	r4,r2,1240
 10020d0:	e0fff717 	ldw	r3,-36(fp)
 10020d4:	18800017 	ldw	r2,0(r3)
 10020d8:	20800015 	stw	r2,0(r4)
 10020dc:	18800117 	ldw	r2,4(r3)
 10020e0:	20800115 	stw	r2,4(r4)
 10020e4:	18800217 	ldw	r2,8(r3)
 10020e8:	20800215 	stw	r2,8(r4)
 10020ec:	18800317 	ldw	r2,12(r3)
 10020f0:	20800315 	stw	r2,12(r4)
 10020f4:	18800417 	ldw	r2,16(r3)
 10020f8:	20800415 	stw	r2,16(r4)
 10020fc:	18800517 	ldw	r2,20(r3)
 1002100:	20800515 	stw	r2,20(r4)
 1002104:	18800617 	ldw	r2,24(r3)
 1002108:	20800615 	stw	r2,24(r4)
 100210c:	18800717 	ldw	r2,28(r3)
 1002110:	20800715 	stw	r2,28(r4)
 1002114:	18800817 	ldw	r2,32(r3)
 1002118:	20800815 	stw	r2,32(r4)
 100211c:	18800917 	ldw	r2,36(r3)
 1002120:	20800915 	stw	r2,36(r4)
	kb->keyset_uppercase[31] = *backspace;
 1002124:	e0bffe17 	ldw	r2,-8(fp)
 1002128:	10804a17 	ldw	r2,296(r2)
 100212c:	11013604 	addi	r4,r2,1240
 1002130:	e0fff717 	ldw	r3,-36(fp)
 1002134:	18800017 	ldw	r2,0(r3)
 1002138:	20800015 	stw	r2,0(r4)
 100213c:	18800117 	ldw	r2,4(r3)
 1002140:	20800115 	stw	r2,4(r4)
 1002144:	18800217 	ldw	r2,8(r3)
 1002148:	20800215 	stw	r2,8(r4)
 100214c:	18800317 	ldw	r2,12(r3)
 1002150:	20800315 	stw	r2,12(r4)
 1002154:	18800417 	ldw	r2,16(r3)
 1002158:	20800415 	stw	r2,16(r4)
 100215c:	18800517 	ldw	r2,20(r3)
 1002160:	20800515 	stw	r2,20(r4)
 1002164:	18800617 	ldw	r2,24(r3)
 1002168:	20800615 	stw	r2,24(r4)
 100216c:	18800717 	ldw	r2,28(r3)
 1002170:	20800715 	stw	r2,28(r4)
 1002174:	18800817 	ldw	r2,32(r3)
 1002178:	20800815 	stw	r2,32(r4)
 100217c:	18800917 	ldw	r2,36(r3)
 1002180:	20800915 	stw	r2,36(r4)

	kb->keyset_lowercase[32] = *caps;
 1002184:	e0bffe17 	ldw	r2,-8(fp)
 1002188:	10804917 	ldw	r2,292(r2)
 100218c:	11014004 	addi	r4,r2,1280
 1002190:	e0fff817 	ldw	r3,-32(fp)
 1002194:	18800017 	ldw	r2,0(r3)
 1002198:	20800015 	stw	r2,0(r4)
 100219c:	18800117 	ldw	r2,4(r3)
 10021a0:	20800115 	stw	r2,4(r4)
 10021a4:	18800217 	ldw	r2,8(r3)
 10021a8:	20800215 	stw	r2,8(r4)
 10021ac:	18800317 	ldw	r2,12(r3)
 10021b0:	20800315 	stw	r2,12(r4)
 10021b4:	18800417 	ldw	r2,16(r3)
 10021b8:	20800415 	stw	r2,16(r4)
 10021bc:	18800517 	ldw	r2,20(r3)
 10021c0:	20800515 	stw	r2,20(r4)
 10021c4:	18800617 	ldw	r2,24(r3)
 10021c8:	20800615 	stw	r2,24(r4)
 10021cc:	18800717 	ldw	r2,28(r3)
 10021d0:	20800715 	stw	r2,28(r4)
 10021d4:	18800817 	ldw	r2,32(r3)
 10021d8:	20800815 	stw	r2,32(r4)
 10021dc:	18800917 	ldw	r2,36(r3)
 10021e0:	20800915 	stw	r2,36(r4)
	kb->keyset_uppercase[32] = *lower;
 10021e4:	e0bffe17 	ldw	r2,-8(fp)
 10021e8:	10804a17 	ldw	r2,296(r2)
 10021ec:	11014004 	addi	r4,r2,1280
 10021f0:	e0fff617 	ldw	r3,-40(fp)
 10021f4:	18800017 	ldw	r2,0(r3)
 10021f8:	20800015 	stw	r2,0(r4)
 10021fc:	18800117 	ldw	r2,4(r3)
 1002200:	20800115 	stw	r2,4(r4)
 1002204:	18800217 	ldw	r2,8(r3)
 1002208:	20800215 	stw	r2,8(r4)
 100220c:	18800317 	ldw	r2,12(r3)
 1002210:	20800315 	stw	r2,12(r4)
 1002214:	18800417 	ldw	r2,16(r3)
 1002218:	20800415 	stw	r2,16(r4)
 100221c:	18800517 	ldw	r2,20(r3)
 1002220:	20800515 	stw	r2,20(r4)
 1002224:	18800617 	ldw	r2,24(r3)
 1002228:	20800615 	stw	r2,24(r4)
 100222c:	18800717 	ldw	r2,28(r3)
 1002230:	20800715 	stw	r2,28(r4)
 1002234:	18800817 	ldw	r2,32(r3)
 1002238:	20800815 	stw	r2,32(r4)
 100223c:	18800917 	ldw	r2,36(r3)
 1002240:	20800915 	stw	r2,36(r4)

	kb->keyset_lowercase[33] = *numbutton;
 1002244:	e0bffe17 	ldw	r2,-8(fp)
 1002248:	10804917 	ldw	r2,292(r2)
 100224c:	11014a04 	addi	r4,r2,1320
 1002250:	e0fff917 	ldw	r3,-28(fp)
 1002254:	18800017 	ldw	r2,0(r3)
 1002258:	20800015 	stw	r2,0(r4)
 100225c:	18800117 	ldw	r2,4(r3)
 1002260:	20800115 	stw	r2,4(r4)
 1002264:	18800217 	ldw	r2,8(r3)
 1002268:	20800215 	stw	r2,8(r4)
 100226c:	18800317 	ldw	r2,12(r3)
 1002270:	20800315 	stw	r2,12(r4)
 1002274:	18800417 	ldw	r2,16(r3)
 1002278:	20800415 	stw	r2,16(r4)
 100227c:	18800517 	ldw	r2,20(r3)
 1002280:	20800515 	stw	r2,20(r4)
 1002284:	18800617 	ldw	r2,24(r3)
 1002288:	20800615 	stw	r2,24(r4)
 100228c:	18800717 	ldw	r2,28(r3)
 1002290:	20800715 	stw	r2,28(r4)
 1002294:	18800817 	ldw	r2,32(r3)
 1002298:	20800815 	stw	r2,32(r4)
 100229c:	18800917 	ldw	r2,36(r3)
 10022a0:	20800915 	stw	r2,36(r4)
	kb->keyset_uppercase[33] = *numbutton;
 10022a4:	e0bffe17 	ldw	r2,-8(fp)
 10022a8:	10804a17 	ldw	r2,296(r2)
 10022ac:	11014a04 	addi	r4,r2,1320
 10022b0:	e0fff917 	ldw	r3,-28(fp)
 10022b4:	18800017 	ldw	r2,0(r3)
 10022b8:	20800015 	stw	r2,0(r4)
 10022bc:	18800117 	ldw	r2,4(r3)
 10022c0:	20800115 	stw	r2,4(r4)
 10022c4:	18800217 	ldw	r2,8(r3)
 10022c8:	20800215 	stw	r2,8(r4)
 10022cc:	18800317 	ldw	r2,12(r3)
 10022d0:	20800315 	stw	r2,12(r4)
 10022d4:	18800417 	ldw	r2,16(r3)
 10022d8:	20800415 	stw	r2,16(r4)
 10022dc:	18800517 	ldw	r2,20(r3)
 10022e0:	20800515 	stw	r2,20(r4)
 10022e4:	18800617 	ldw	r2,24(r3)
 10022e8:	20800615 	stw	r2,24(r4)
 10022ec:	18800717 	ldw	r2,28(r3)
 10022f0:	20800715 	stw	r2,28(r4)
 10022f4:	18800817 	ldw	r2,32(r3)
 10022f8:	20800815 	stw	r2,32(r4)
 10022fc:	18800917 	ldw	r2,36(r3)
 1002300:	20800915 	stw	r2,36(r4)

	kb->keyset_lowercase[34] = *donebutton;
 1002304:	e0bffe17 	ldw	r2,-8(fp)
 1002308:	10804917 	ldw	r2,292(r2)
 100230c:	11015404 	addi	r4,r2,1360
 1002310:	e0fff517 	ldw	r3,-44(fp)
 1002314:	18800017 	ldw	r2,0(r3)
 1002318:	20800015 	stw	r2,0(r4)
 100231c:	18800117 	ldw	r2,4(r3)
 1002320:	20800115 	stw	r2,4(r4)
 1002324:	18800217 	ldw	r2,8(r3)
 1002328:	20800215 	stw	r2,8(r4)
 100232c:	18800317 	ldw	r2,12(r3)
 1002330:	20800315 	stw	r2,12(r4)
 1002334:	18800417 	ldw	r2,16(r3)
 1002338:	20800415 	stw	r2,16(r4)
 100233c:	18800517 	ldw	r2,20(r3)
 1002340:	20800515 	stw	r2,20(r4)
 1002344:	18800617 	ldw	r2,24(r3)
 1002348:	20800615 	stw	r2,24(r4)
 100234c:	18800717 	ldw	r2,28(r3)
 1002350:	20800715 	stw	r2,28(r4)
 1002354:	18800817 	ldw	r2,32(r3)
 1002358:	20800815 	stw	r2,32(r4)
 100235c:	18800917 	ldw	r2,36(r3)
 1002360:	20800915 	stw	r2,36(r4)
	kb->keyset_uppercase[34] = *donebutton;
 1002364:	e0bffe17 	ldw	r2,-8(fp)
 1002368:	10804a17 	ldw	r2,296(r2)
 100236c:	11015404 	addi	r4,r2,1360
 1002370:	e0fff517 	ldw	r3,-44(fp)
 1002374:	18800017 	ldw	r2,0(r3)
 1002378:	20800015 	stw	r2,0(r4)
 100237c:	18800117 	ldw	r2,4(r3)
 1002380:	20800115 	stw	r2,4(r4)
 1002384:	18800217 	ldw	r2,8(r3)
 1002388:	20800215 	stw	r2,8(r4)
 100238c:	18800317 	ldw	r2,12(r3)
 1002390:	20800315 	stw	r2,12(r4)
 1002394:	18800417 	ldw	r2,16(r3)
 1002398:	20800415 	stw	r2,16(r4)
 100239c:	18800517 	ldw	r2,20(r3)
 10023a0:	20800515 	stw	r2,20(r4)
 10023a4:	18800617 	ldw	r2,24(r3)
 10023a8:	20800615 	stw	r2,24(r4)
 10023ac:	18800717 	ldw	r2,28(r3)
 10023b0:	20800715 	stw	r2,28(r4)
 10023b4:	18800817 	ldw	r2,32(r3)
 10023b8:	20800815 	stw	r2,32(r4)
 10023bc:	18800917 	ldw	r2,36(r3)
 10023c0:	20800915 	stw	r2,36(r4)

	kb->curInputBoxIndex = -1;
 10023c4:	e0fffe17 	ldw	r3,-8(fp)
 10023c8:	00bfffc4 	movi	r2,-1
 10023cc:	18804715 	stw	r2,284(r3)

	return *kb;
 10023d0:	e17ffe17 	ldw	r5,-8(fp)
 10023d4:	e13fff17 	ldw	r4,-4(fp)
 10023d8:	01805304 	movi	r6,332
 10023dc:	10153140 	call	1015314 <memmove>
}
 10023e0:	e0bfff17 	ldw	r2,-4(fp)
 10023e4:	e037883a 	mov	sp,fp
 10023e8:	dfc00117 	ldw	ra,4(sp)
 10023ec:	df000017 	ldw	fp,0(sp)
 10023f0:	dec00204 	addi	sp,sp,8
 10023f4:	f800283a 	ret

010023f8 <buildObject>:

void buildObject(int x_centre, int y_centre, int object_width,
		int object_height, int outlineColour, int fillColour, int fontColor,
		char *text, Object * o, int numChar) {
 10023f8:	defffb04 	addi	sp,sp,-20
 10023fc:	df000415 	stw	fp,16(sp)
 1002400:	df000404 	addi	fp,sp,16
 1002404:	e13ffc15 	stw	r4,-16(fp)
 1002408:	e17ffd15 	stw	r5,-12(fp)
 100240c:	e1bffe15 	stw	r6,-8(fp)
 1002410:	e1ffff15 	stw	r7,-4(fp)

	o->objectText = text;
 1002414:	e0c00517 	ldw	r3,20(fp)
 1002418:	e0800417 	ldw	r2,16(fp)
 100241c:	18800015 	stw	r2,0(r3)
	o->x1 = x_centre - (object_width / 2);
 1002420:	e0fffe17 	ldw	r3,-8(fp)
 1002424:	1804d7fa 	srli	r2,r3,31
 1002428:	10c5883a 	add	r2,r2,r3
 100242c:	1005d07a 	srai	r2,r2,1
 1002430:	1007883a 	mov	r3,r2
 1002434:	e0bffc17 	ldw	r2,-16(fp)
 1002438:	10c7c83a 	sub	r3,r2,r3
 100243c:	e0800517 	ldw	r2,20(fp)
 1002440:	10c00115 	stw	r3,4(r2)
	o->x2 = x_centre + (object_width / 2);
 1002444:	e0fffe17 	ldw	r3,-8(fp)
 1002448:	1804d7fa 	srli	r2,r3,31
 100244c:	10c5883a 	add	r2,r2,r3
 1002450:	1005d07a 	srai	r2,r2,1
 1002454:	1007883a 	mov	r3,r2
 1002458:	e0bffc17 	ldw	r2,-16(fp)
 100245c:	1887883a 	add	r3,r3,r2
 1002460:	e0800517 	ldw	r2,20(fp)
 1002464:	10c00215 	stw	r3,8(r2)
	o->y1 = y_centre - (object_height / 2);
 1002468:	e0ffff17 	ldw	r3,-4(fp)
 100246c:	1804d7fa 	srli	r2,r3,31
 1002470:	10c5883a 	add	r2,r2,r3
 1002474:	1005d07a 	srai	r2,r2,1
 1002478:	1007883a 	mov	r3,r2
 100247c:	e0bffd17 	ldw	r2,-12(fp)
 1002480:	10c7c83a 	sub	r3,r2,r3
 1002484:	e0800517 	ldw	r2,20(fp)
 1002488:	10c00315 	stw	r3,12(r2)
	o->y2 = y_centre + (object_height / 2);
 100248c:	e0ffff17 	ldw	r3,-4(fp)
 1002490:	1804d7fa 	srli	r2,r3,31
 1002494:	10c5883a 	add	r2,r2,r3
 1002498:	1005d07a 	srai	r2,r2,1
 100249c:	1007883a 	mov	r3,r2
 10024a0:	e0bffd17 	ldw	r2,-12(fp)
 10024a4:	1887883a 	add	r3,r3,r2
 10024a8:	e0800517 	ldw	r2,20(fp)
 10024ac:	10c00415 	stw	r3,16(r2)
	o->outlineColour = outlineColour;
 10024b0:	e0c00517 	ldw	r3,20(fp)
 10024b4:	e0800117 	ldw	r2,4(fp)
 10024b8:	18800515 	stw	r2,20(r3)
	o->fillColour = fillColour;
 10024bc:	e0c00517 	ldw	r3,20(fp)
 10024c0:	e0800217 	ldw	r2,8(fp)
 10024c4:	18800615 	stw	r2,24(r3)
	o->fontColour = fontColor;
 10024c8:	e0c00517 	ldw	r3,20(fp)
 10024cc:	e0800317 	ldw	r2,12(fp)
 10024d0:	18800715 	stw	r2,28(r3)
	o->captionLength = numChar;
 10024d4:	e0c00517 	ldw	r3,20(fp)
 10024d8:	e0800617 	ldw	r2,24(fp)
 10024dc:	18800815 	stw	r2,32(r3)
}
 10024e0:	e037883a 	mov	sp,fp
 10024e4:	df000017 	ldw	fp,0(sp)
 10024e8:	dec00104 	addi	sp,sp,4
 10024ec:	f800283a 	ret

010024f0 <buildHomePage>:
#include <stdlib.h>
#include <string.h>
#include <stdio.h>
#include <string.h>

void buildHomePage(Page *home) {
 10024f0:	defff604 	addi	sp,sp,-40
 10024f4:	dfc00915 	stw	ra,36(sp)
 10024f8:	df000815 	stw	fp,32(sp)
 10024fc:	df000804 	addi	fp,sp,32
 1002500:	e13fff15 	stw	r4,-4(fp)

	// Allocate memory for home screen buttons
	home->buttons = malloc(sizeof(Button) * 6);
 1002504:	01003c04 	movi	r4,240
 1002508:	1014b200 	call	1014b20 <malloc>
 100250c:	1007883a 	mov	r3,r2
 1002510:	e0bfff17 	ldw	r2,-4(fp)
 1002514:	10c00815 	stw	r3,32(r2)
	home->objects = malloc(sizeof(Object) * 3);
 1002518:	01001b04 	movi	r4,108
 100251c:	1014b200 	call	1014b20 <malloc>
 1002520:	1007883a 	mov	r3,r2
 1002524:	e0bfff17 	ldw	r2,-4(fp)
 1002528:	10c00915 	stw	r3,36(r2)
	home->numButtons = 6;
 100252c:	e0ffff17 	ldw	r3,-4(fp)
 1002530:	00800184 	movi	r2,6
 1002534:	18800315 	stw	r2,12(r3)
	home->numObjects = 3;
 1002538:	e0ffff17 	ldw	r3,-4(fp)
 100253c:	008000c4 	movi	r2,3
 1002540:	18800415 	stw	r2,16(r3)
	home->numInputBoxes = 0;
 1002544:	e0bfff17 	ldw	r2,-4(fp)
 1002548:	10000215 	stw	zero,8(r2)
	home->numSDBoxes = 0;
 100254c:	e0bfff17 	ldw	r2,-4(fp)
 1002550:	10000515 	stw	zero,20(r2)
	home->backColour = WHITE;
 1002554:	e0ffff17 	ldw	r3,-4(fp)
 1002558:	00800044 	movi	r2,1
 100255c:	18800015 	stw	r2,0(r3)

	// Destination button
	buildButton(400, 359, BUTTON_WIDTH, BUTTON_HEIGHT, BLACK, LIME_GREEN, BLACK,
 1002560:	e0bfff17 	ldw	r2,-4(fp)
 1002564:	10c00817 	ldw	r3,32(r2)
 1002568:	d1270717 	ldw	r4,-25572(gp)
 100256c:	d8000015 	stw	zero,0(sp)
 1002570:	00800c04 	movi	r2,48
 1002574:	d8800115 	stw	r2,4(sp)
 1002578:	d8000215 	stw	zero,8(sp)
 100257c:	008040f4 	movhi	r2,259
 1002580:	10a48004 	addi	r2,r2,-28160
 1002584:	d8800315 	stw	r2,12(sp)
 1002588:	d8c00415 	stw	r3,16(sp)
 100258c:	008002c4 	movi	r2,11
 1002590:	d8800515 	stw	r2,20(sp)
 1002594:	d9000615 	stw	r4,24(sp)
 1002598:	01006404 	movi	r4,400
 100259c:	014059c4 	movi	r5,359
 10025a0:	01802584 	movi	r6,150
 10025a4:	01c00c84 	movi	r7,50
 10025a8:	1000e8c0 	call	1000e8c <buildButton>
			"Destination", &(home->buttons[0]), strlen("Destination"),
			destination);

	// "Where am I?" button
	buildButton(600, 359, BUTTON_WIDTH, BUTTON_HEIGHT, BLACK, GOLD, BLACK,
 10025ac:	e0bfff17 	ldw	r2,-4(fp)
 10025b0:	10800817 	ldw	r2,32(r2)
 10025b4:	10c00a04 	addi	r3,r2,40
 10025b8:	d1270517 	ldw	r4,-25580(gp)
 10025bc:	d8000015 	stw	zero,0(sp)
 10025c0:	00800784 	movi	r2,30
 10025c4:	d8800115 	stw	r2,4(sp)
 10025c8:	d8000215 	stw	zero,8(sp)
 10025cc:	008040f4 	movhi	r2,259
 10025d0:	10a48304 	addi	r2,r2,-28148
 10025d4:	d8800315 	stw	r2,12(sp)
 10025d8:	d8c00415 	stw	r3,16(sp)
 10025dc:	008002c4 	movi	r2,11
 10025e0:	d8800515 	stw	r2,20(sp)
 10025e4:	d9000615 	stw	r4,24(sp)
 10025e8:	01009604 	movi	r4,600
 10025ec:	014059c4 	movi	r5,359
 10025f0:	01802584 	movi	r6,150
 10025f4:	01c00c84 	movi	r7,50
 10025f8:	1000e8c0 	call	1000e8c <buildButton>
			"Where am I?", &(home->buttons[1]), strlen("Where am I?"), self);

	//Password
	buildButton(200, 359, BUTTON_WIDTH, BUTTON_HEIGHT, BLACK, GOLD, BLACK,
 10025fc:	e0bfff17 	ldw	r2,-4(fp)
 1002600:	10800817 	ldw	r2,32(r2)
 1002604:	10c01404 	addi	r3,r2,80
 1002608:	d1270817 	ldw	r4,-25568(gp)
 100260c:	d8000015 	stw	zero,0(sp)
 1002610:	00800784 	movi	r2,30
 1002614:	d8800115 	stw	r2,4(sp)
 1002618:	d8000215 	stw	zero,8(sp)
 100261c:	008040f4 	movhi	r2,259
 1002620:	10a48604 	addi	r2,r2,-28136
 1002624:	d8800315 	stw	r2,12(sp)
 1002628:	d8c00415 	stw	r3,16(sp)
 100262c:	00800304 	movi	r2,12
 1002630:	d8800515 	stw	r2,20(sp)
 1002634:	d9000615 	stw	r4,24(sp)
 1002638:	01003204 	movi	r4,200
 100263c:	014059c4 	movi	r5,359
 1002640:	01802584 	movi	r6,150
 1002644:	01c00c84 	movi	r7,50
 1002648:	1000e8c0 	call	1000e8c <buildButton>
			"Set Password", &(home->buttons[2]), strlen("Set Password"),
			passwordSetup);

	//map
	buildButton(266, 250, BUTTON_WIDTH, BUTTON_HEIGHT, BLACK, LIME_GREEN, BLACK,
 100264c:	e0bfff17 	ldw	r2,-4(fp)
 1002650:	10800817 	ldw	r2,32(r2)
 1002654:	10c01e04 	addi	r3,r2,120
 1002658:	d1270617 	ldw	r4,-25576(gp)
 100265c:	d8000015 	stw	zero,0(sp)
 1002660:	00800c04 	movi	r2,48
 1002664:	d8800115 	stw	r2,4(sp)
 1002668:	d8000215 	stw	zero,8(sp)
 100266c:	008040f4 	movhi	r2,259
 1002670:	10a48a04 	addi	r2,r2,-28120
 1002674:	d8800315 	stw	r2,12(sp)
 1002678:	d8c00415 	stw	r3,16(sp)
 100267c:	008000c4 	movi	r2,3
 1002680:	d8800515 	stw	r2,20(sp)
 1002684:	d9000615 	stw	r4,24(sp)
 1002688:	01004284 	movi	r4,266
 100268c:	01403e84 	movi	r5,250
 1002690:	01802584 	movi	r6,150
 1002694:	01c00c84 	movi	r7,50
 1002698:	1000e8c0 	call	1000e8c <buildButton>
			"Map", &(home->buttons[3]), strlen("Map"), map);

	//loggingSettings
	buildButton(533, 250, BUTTON_WIDTH, BUTTON_HEIGHT, BLACK, LIME_GREEN, BLACK,
 100269c:	e0bfff17 	ldw	r2,-4(fp)
 10026a0:	10800817 	ldw	r2,32(r2)
 10026a4:	10c02804 	addi	r3,r2,160
 10026a8:	d1270d17 	ldw	r4,-25548(gp)
 10026ac:	d8000015 	stw	zero,0(sp)
 10026b0:	00800c04 	movi	r2,48
 10026b4:	d8800115 	stw	r2,4(sp)
 10026b8:	d8000215 	stw	zero,8(sp)
 10026bc:	008040f4 	movhi	r2,259
 10026c0:	10a48b04 	addi	r2,r2,-28116
 10026c4:	d8800315 	stw	r2,12(sp)
 10026c8:	d8c00415 	stw	r3,16(sp)
 10026cc:	00800304 	movi	r2,12
 10026d0:	d8800515 	stw	r2,20(sp)
 10026d4:	d9000615 	stw	r4,24(sp)
 10026d8:	01008544 	movi	r4,533
 10026dc:	01403e84 	movi	r5,250
 10026e0:	01802584 	movi	r6,150
 10026e4:	01c00c84 	movi	r7,50
 10026e8:	1000e8c0 	call	1000e8c <buildButton>
			"Log Settings", &(home->buttons[4]), strlen("Log Settings"),
			loggingSettings);

	//addresses
	buildButton(400, 150, 300, 50, BLACK, GOLD, BLACK, "Addresses",
 10026ec:	e0bfff17 	ldw	r2,-4(fp)
 10026f0:	10800817 	ldw	r2,32(r2)
 10026f4:	10c03204 	addi	r3,r2,200
 10026f8:	d1270c17 	ldw	r4,-25552(gp)
 10026fc:	d8000015 	stw	zero,0(sp)
 1002700:	00800784 	movi	r2,30
 1002704:	d8800115 	stw	r2,4(sp)
 1002708:	d8000215 	stw	zero,8(sp)
 100270c:	008040f4 	movhi	r2,259
 1002710:	10a48f04 	addi	r2,r2,-28100
 1002714:	d8800315 	stw	r2,12(sp)
 1002718:	d8c00415 	stw	r3,16(sp)
 100271c:	00800244 	movi	r2,9
 1002720:	d8800515 	stw	r2,20(sp)
 1002724:	d9000615 	stw	r4,24(sp)
 1002728:	01006404 	movi	r4,400
 100272c:	01402584 	movi	r5,150
 1002730:	01804b04 	movi	r6,300
 1002734:	01c00c84 	movi	r7,50
 1002738:	1000e8c0 	call	1000e8c <buildButton>
			&(home->buttons[5]), strlen("Addresses"), addresses);

	// Title Object
	buildObject(100, 100, OBJECT_WIDTH, OBJECT_HEIGHT, WHITE, WHITE, BLACK,
 100273c:	e0bfff17 	ldw	r2,-4(fp)
 1002740:	10c00917 	ldw	r3,36(r2)
 1002744:	00800044 	movi	r2,1
 1002748:	d8800015 	stw	r2,0(sp)
 100274c:	00800044 	movi	r2,1
 1002750:	d8800115 	stw	r2,4(sp)
 1002754:	d8000215 	stw	zero,8(sp)
 1002758:	008040f4 	movhi	r2,259
 100275c:	10a49204 	addi	r2,r2,-28088
 1002760:	d8800315 	stw	r2,12(sp)
 1002764:	d8c00415 	stw	r3,16(sp)
 1002768:	008003c4 	movi	r2,15
 100276c:	d8800515 	stw	r2,20(sp)
 1002770:	01001904 	movi	r4,100
 1002774:	01401904 	movi	r5,100
 1002778:	01802584 	movi	r6,150
 100277c:	01c00f04 	movi	r7,60
 1002780:	10023f80 	call	10023f8 <buildObject>
			"SPRINT2 GROUP 3", &(home->objects[0]), strlen("SPRINT2 GROUP 3"));

	// Course Title Object
	buildObject(700, 100, OBJECT_WIDTH, OBJECT_HEIGHT, WHITE, WHITE, BLACK,
 1002784:	e0bfff17 	ldw	r2,-4(fp)
 1002788:	10800917 	ldw	r2,36(r2)
 100278c:	10c00904 	addi	r3,r2,36
 1002790:	00800044 	movi	r2,1
 1002794:	d8800015 	stw	r2,0(sp)
 1002798:	00800044 	movi	r2,1
 100279c:	d8800115 	stw	r2,4(sp)
 10027a0:	d8000215 	stw	zero,8(sp)
 10027a4:	008040f4 	movhi	r2,259
 10027a8:	10a49604 	addi	r2,r2,-28072
 10027ac:	d8800315 	stw	r2,12(sp)
 10027b0:	d8c00415 	stw	r3,16(sp)
 10027b4:	008001c4 	movi	r2,7
 10027b8:	d8800515 	stw	r2,20(sp)
 10027bc:	0100af04 	movi	r4,700
 10027c0:	01401904 	movi	r5,100
 10027c4:	01802584 	movi	r6,150
 10027c8:	01c00f04 	movi	r7,60
 10027cc:	10023f80 	call	10023f8 <buildObject>
			"CPEN391", &(home->objects[1]), strlen("CPEN391"));

	// Time Object
	buildObject(770, 20, BUTTON_WIDTH, BUTTON_HEIGHT, WHITE, WHITE, BLACK,
 10027d0:	e0bfff17 	ldw	r2,-4(fp)
 10027d4:	10800917 	ldw	r2,36(r2)
 10027d8:	10c01204 	addi	r3,r2,72
 10027dc:	00800044 	movi	r2,1
 10027e0:	d8800015 	stw	r2,0(sp)
 10027e4:	00800044 	movi	r2,1
 10027e8:	d8800115 	stw	r2,4(sp)
 10027ec:	d8000215 	stw	zero,8(sp)
 10027f0:	008040f4 	movhi	r2,259
 10027f4:	10a49804 	addi	r2,r2,-28064
 10027f8:	d8800315 	stw	r2,12(sp)
 10027fc:	d8c00415 	stw	r3,16(sp)
 1002800:	00800144 	movi	r2,5
 1002804:	d8800515 	stw	r2,20(sp)
 1002808:	0100c084 	movi	r4,770
 100280c:	01400504 	movi	r5,20
 1002810:	01802584 	movi	r6,150
 1002814:	01c00c84 	movi	r7,50
 1002818:	10023f80 	call	10023f8 <buildObject>
			"     ", &(home->objects[2]), strlen("00:00"));

}
 100281c:	e037883a 	mov	sp,fp
 1002820:	dfc00117 	ldw	ra,4(sp)
 1002824:	df000017 	ldw	fp,0(sp)
 1002828:	dec00204 	addi	sp,sp,8
 100282c:	f800283a 	ret

01002830 <buildDestPage>:

void buildDestPage(Page *destination) {
 1002830:	defff604 	addi	sp,sp,-40
 1002834:	dfc00915 	stw	ra,36(sp)
 1002838:	df000815 	stw	fp,32(sp)
 100283c:	df000804 	addi	fp,sp,32
 1002840:	e13fff15 	stw	r4,-4(fp)

	// Definitions for Destination Page
	// Memory management
	destination->hasKeyboard = 0;
 1002844:	e0bfff17 	ldw	r2,-4(fp)
 1002848:	10000615 	stw	zero,24(r2)
	destination->buttons = malloc(sizeof(Button) * 1);
 100284c:	01000a04 	movi	r4,40
 1002850:	1014b200 	call	1014b20 <malloc>
 1002854:	1007883a 	mov	r3,r2
 1002858:	e0bfff17 	ldw	r2,-4(fp)
 100285c:	10c00815 	stw	r3,32(r2)
	destination->objects = malloc(sizeof(Object) * 4);
 1002860:	01002404 	movi	r4,144
 1002864:	1014b200 	call	1014b20 <malloc>
 1002868:	1007883a 	mov	r3,r2
 100286c:	e0bfff17 	ldw	r2,-4(fp)
 1002870:	10c00915 	stw	r3,36(r2)
	destination->inputBoxes = malloc(sizeof(InputBox) * 4);
 1002874:	01011c04 	movi	r4,1136
 1002878:	1014b200 	call	1014b20 <malloc>
 100287c:	1007883a 	mov	r3,r2
 1002880:	e0bfff17 	ldw	r2,-4(fp)
 1002884:	10c05d15 	stw	r3,372(r2)
	destination->sdBoxes = malloc(sizeof(SDBox) * 4);
 1002888:	01002404 	movi	r4,144
 100288c:	1014b200 	call	1014b20 <malloc>
 1002890:	1007883a 	mov	r3,r2
 1002894:	e0bfff17 	ldw	r2,-4(fp)
 1002898:	10c05e15 	stw	r3,376(r2)
	destination->numButtons = 1;
 100289c:	e0ffff17 	ldw	r3,-4(fp)
 10028a0:	00800044 	movi	r2,1
 10028a4:	18800315 	stw	r2,12(r3)
	destination->numObjects = 4;
 10028a8:	e0ffff17 	ldw	r3,-4(fp)
 10028ac:	00800104 	movi	r2,4
 10028b0:	18800415 	stw	r2,16(r3)
	destination->backColour = WHITE;
 10028b4:	e0ffff17 	ldw	r3,-4(fp)
 10028b8:	00800044 	movi	r2,1
 10028bc:	18800015 	stw	r2,0(r3)
	destination->numInputBoxes = 4;
 10028c0:	e0ffff17 	ldw	r3,-4(fp)
 10028c4:	00800104 	movi	r2,4
 10028c8:	18800215 	stw	r2,8(r3)
	destination->numSDBoxes = 4;
 10028cc:	e0ffff17 	ldw	r3,-4(fp)
 10028d0:	00800104 	movi	r2,4
 10028d4:	18800515 	stw	r2,20(r3)

	// Home button
	buildButton(160, 330, BUTTON_WIDTH, BUTTON_HEIGHT, BLACK, AQUA, BLACK,
 10028d8:	e0bfff17 	ldw	r2,-4(fp)
 10028dc:	10c00817 	ldw	r3,32(r2)
 10028e0:	d1271117 	ldw	r4,-25532(gp)
 10028e4:	d8000015 	stw	zero,0(sp)
 10028e8:	00800f44 	movi	r2,61
 10028ec:	d8800115 	stw	r2,4(sp)
 10028f0:	d8000215 	stw	zero,8(sp)
 10028f4:	008040f4 	movhi	r2,259
 10028f8:	10a49a04 	addi	r2,r2,-28056
 10028fc:	d8800315 	stw	r2,12(sp)
 1002900:	d8c00415 	stw	r3,16(sp)
 1002904:	00800104 	movi	r2,4
 1002908:	d8800515 	stw	r2,20(sp)
 100290c:	d9000615 	stw	r4,24(sp)
 1002910:	01002804 	movi	r4,160
 1002914:	01405284 	movi	r5,330
 1002918:	01802584 	movi	r6,150
 100291c:	01c00c84 	movi	r7,50
 1002920:	1000e8c0 	call	1000e8c <buildButton>
			"Home", &(destination->buttons[0]), strlen("Home"), home);

	//Save Plaintext To SD
	buildSDBox(160, 400, BUTTON_WIDTH, BUTTON_HEIGHT, BLACK, AQUA, BLACK,
 1002924:	e0bfff17 	ldw	r2,-4(fp)
 1002928:	10c05e17 	ldw	r3,376(r2)
 100292c:	d8000015 	stw	zero,0(sp)
 1002930:	00800f44 	movi	r2,61
 1002934:	d8800115 	stw	r2,4(sp)
 1002938:	d8000215 	stw	zero,8(sp)
 100293c:	008040f4 	movhi	r2,259
 1002940:	10a49c04 	addi	r2,r2,-28048
 1002944:	d8800315 	stw	r2,12(sp)
 1002948:	d8c00415 	stw	r3,16(sp)
 100294c:	00800384 	movi	r2,14
 1002950:	d8800515 	stw	r2,20(sp)
 1002954:	01002804 	movi	r4,160
 1002958:	01406404 	movi	r5,400
 100295c:	01802584 	movi	r6,150
 1002960:	01c00c84 	movi	r7,50
 1002964:	100aafc0 	call	100aafc <buildSDBox>
			"Save Plaintext", &(destination->sdBoxes[0]),
			strlen("Save Plaintext"));
	//Save Encrypted To SD
	buildSDBox(320, 400, BUTTON_WIDTH, BUTTON_HEIGHT, BLACK, AQUA, BLACK,
 1002968:	e0bfff17 	ldw	r2,-4(fp)
 100296c:	10805e17 	ldw	r2,376(r2)
 1002970:	10c00904 	addi	r3,r2,36
 1002974:	d8000015 	stw	zero,0(sp)
 1002978:	00800f44 	movi	r2,61
 100297c:	d8800115 	stw	r2,4(sp)
 1002980:	d8000215 	stw	zero,8(sp)
 1002984:	008040f4 	movhi	r2,259
 1002988:	10a4a004 	addi	r2,r2,-28032
 100298c:	d8800315 	stw	r2,12(sp)
 1002990:	d8c00415 	stw	r3,16(sp)
 1002994:	00800384 	movi	r2,14
 1002998:	d8800515 	stw	r2,20(sp)
 100299c:	01005004 	movi	r4,320
 10029a0:	01406404 	movi	r5,400
 10029a4:	01802584 	movi	r6,150
 10029a8:	01c00c84 	movi	r7,50
 10029ac:	100aafc0 	call	100aafc <buildSDBox>
			"Save Encrypted", &(destination->sdBoxes[1]),
			strlen("Save Encrypted"));
	//Load from SD
	buildSDBox(480, 400, BUTTON_WIDTH, BUTTON_HEIGHT, BLACK, AQUA, BLACK,
 10029b0:	e0bfff17 	ldw	r2,-4(fp)
 10029b4:	10805e17 	ldw	r2,376(r2)
 10029b8:	10c01204 	addi	r3,r2,72
 10029bc:	d8000015 	stw	zero,0(sp)
 10029c0:	00800f44 	movi	r2,61
 10029c4:	d8800115 	stw	r2,4(sp)
 10029c8:	d8000215 	stw	zero,8(sp)
 10029cc:	008040f4 	movhi	r2,259
 10029d0:	10a4a404 	addi	r2,r2,-28016
 10029d4:	d8800315 	stw	r2,12(sp)
 10029d8:	d8c00415 	stw	r3,16(sp)
 10029dc:	00800244 	movi	r2,9
 10029e0:	d8800515 	stw	r2,20(sp)
 10029e4:	01007804 	movi	r4,480
 10029e8:	01406404 	movi	r5,400
 10029ec:	01802584 	movi	r6,150
 10029f0:	01c00c84 	movi	r7,50
 10029f4:	100aafc0 	call	100aafc <buildSDBox>
			"Load Data", &(destination->sdBoxes[2]), strlen("Load Data"));

	buildSDBox(640, 400, BUTTON_WIDTH, BUTTON_HEIGHT, BLACK, AQUA, BLACK,
 10029f8:	e0bfff17 	ldw	r2,-4(fp)
 10029fc:	10805e17 	ldw	r2,376(r2)
 1002a00:	10c01b04 	addi	r3,r2,108
 1002a04:	d8000015 	stw	zero,0(sp)
 1002a08:	00800f44 	movi	r2,61
 1002a0c:	d8800115 	stw	r2,4(sp)
 1002a10:	d8000215 	stw	zero,8(sp)
 1002a14:	008040f4 	movhi	r2,259
 1002a18:	10a4a704 	addi	r2,r2,-28004
 1002a1c:	d8800315 	stw	r2,12(sp)
 1002a20:	d8c00415 	stw	r3,16(sp)
 1002a24:	008002c4 	movi	r2,11
 1002a28:	d8800515 	stw	r2,20(sp)
 1002a2c:	0100a004 	movi	r4,640
 1002a30:	01406404 	movi	r5,400
 1002a34:	01802584 	movi	r6,150
 1002a38:	01c00c84 	movi	r7,50
 1002a3c:	100aafc0 	call	100aafc <buildSDBox>
			"Load Secure", &(destination->sdBoxes[3]), strlen("Load Secure"));

	// Page contents
	// Headings
	buildObject(150, 100, BUTTON_WIDTH, BUTTON_HEIGHT, WHITE, WHITE, BLACK,
 1002a40:	e0bfff17 	ldw	r2,-4(fp)
 1002a44:	10c00917 	ldw	r3,36(r2)
 1002a48:	00800044 	movi	r2,1
 1002a4c:	d8800015 	stw	r2,0(sp)
 1002a50:	00800044 	movi	r2,1
 1002a54:	d8800115 	stw	r2,4(sp)
 1002a58:	d8000215 	stw	zero,8(sp)
 1002a5c:	008040f4 	movhi	r2,259
 1002a60:	10a4aa04 	addi	r2,r2,-27992
 1002a64:	d8800315 	stw	r2,12(sp)
 1002a68:	d8c00415 	stw	r3,16(sp)
 1002a6c:	00800544 	movi	r2,21
 1002a70:	d8800515 	stw	r2,20(sp)
 1002a74:	01002584 	movi	r4,150
 1002a78:	01401904 	movi	r5,100
 1002a7c:	01802584 	movi	r6,150
 1002a80:	01c00c84 	movi	r7,50
 1002a84:	10023f80 	call	10023f8 <buildObject>
			"Your Destination Is: ", &(destination->objects[0]),
			strlen("Your Destination Is: "));
	buildObject(150, 150, BUTTON_WIDTH, BUTTON_HEIGHT, WHITE, WHITE, BLACK,
 1002a88:	e0bfff17 	ldw	r2,-4(fp)
 1002a8c:	10800917 	ldw	r2,36(r2)
 1002a90:	10c00904 	addi	r3,r2,36
 1002a94:	00800044 	movi	r2,1
 1002a98:	d8800015 	stw	r2,0(sp)
 1002a9c:	00800044 	movi	r2,1
 1002aa0:	d8800115 	stw	r2,4(sp)
 1002aa4:	d8000215 	stw	zero,8(sp)
 1002aa8:	008040f4 	movhi	r2,259
 1002aac:	10a4b004 	addi	r2,r2,-27968
 1002ab0:	d8800315 	stw	r2,12(sp)
 1002ab4:	d8c00415 	stw	r3,16(sp)
 1002ab8:	00800384 	movi	r2,14
 1002abc:	d8800515 	stw	r2,20(sp)
 1002ac0:	01002584 	movi	r4,150
 1002ac4:	01402584 	movi	r5,150
 1002ac8:	01802584 	movi	r6,150
 1002acc:	01c00c84 	movi	r7,50
 1002ad0:	10023f80 	call	10023f8 <buildObject>
			"Home Address: ", &(destination->objects[1]),
			strlen("Home Address: "));
	buildObject(150, 200, BUTTON_WIDTH, BUTTON_HEIGHT, WHITE, WHITE, BLACK,
 1002ad4:	e0bfff17 	ldw	r2,-4(fp)
 1002ad8:	10800917 	ldw	r2,36(r2)
 1002adc:	10c01204 	addi	r3,r2,72
 1002ae0:	00800044 	movi	r2,1
 1002ae4:	d8800015 	stw	r2,0(sp)
 1002ae8:	00800044 	movi	r2,1
 1002aec:	d8800115 	stw	r2,4(sp)
 1002af0:	d8000215 	stw	zero,8(sp)
 1002af4:	008040f4 	movhi	r2,259
 1002af8:	10a4b404 	addi	r2,r2,-27952
 1002afc:	d8800315 	stw	r2,12(sp)
 1002b00:	d8c00415 	stw	r3,16(sp)
 1002b04:	00800244 	movi	r2,9
 1002b08:	d8800515 	stw	r2,20(sp)
 1002b0c:	01002584 	movi	r4,150
 1002b10:	01403204 	movi	r5,200
 1002b14:	01802584 	movi	r6,150
 1002b18:	01c00c84 	movi	r7,50
 1002b1c:	10023f80 	call	10023f8 <buildObject>
			"Phone #: ", &(destination->objects[2]), strlen("Phone #: "));
	buildObject(150, 250, BUTTON_WIDTH, BUTTON_HEIGHT, WHITE, WHITE, BLACK,
 1002b20:	e0bfff17 	ldw	r2,-4(fp)
 1002b24:	10800917 	ldw	r2,36(r2)
 1002b28:	10c01b04 	addi	r3,r2,108
 1002b2c:	00800044 	movi	r2,1
 1002b30:	d8800015 	stw	r2,0(sp)
 1002b34:	00800044 	movi	r2,1
 1002b38:	d8800115 	stw	r2,4(sp)
 1002b3c:	d8000215 	stw	zero,8(sp)
 1002b40:	008040f4 	movhi	r2,259
 1002b44:	10a4b704 	addi	r2,r2,-27940
 1002b48:	d8800315 	stw	r2,12(sp)
 1002b4c:	d8c00415 	stw	r3,16(sp)
 1002b50:	00800184 	movi	r2,6
 1002b54:	d8800515 	stw	r2,20(sp)
 1002b58:	01002584 	movi	r4,150
 1002b5c:	01403e84 	movi	r5,250
 1002b60:	01802584 	movi	r6,150
 1002b64:	01c00c84 	movi	r7,50
 1002b68:	10023f80 	call	10023f8 <buildObject>
			"Name: ", &(destination->objects[3]), strlen("Name: "));

	// Text Fields for Input Boxes from top to bottom respectively
	buildInputBox(&(destination->inputBoxes[0]), 450, 100, OBJECT_WIDTH + 100,
 1002b6c:	e0bfff17 	ldw	r2,-4(fp)
 1002b70:	11005d17 	ldw	r4,372(r2)
 1002b74:	00800784 	movi	r2,30
 1002b78:	d8800015 	stw	r2,0(sp)
 1002b7c:	00800044 	movi	r2,1
 1002b80:	d8800115 	stw	r2,4(sp)
 1002b84:	d8000215 	stw	zero,8(sp)
 1002b88:	d8000315 	stw	zero,12(sp)
 1002b8c:	01407084 	movi	r5,450
 1002b90:	01801904 	movi	r6,100
 1002b94:	01c03e84 	movi	r7,250
 1002b98:	100a8c80 	call	100a8c8 <buildInputBox>
			OBJECT_HEIGHT / 2, WHITE, BLACK, BLACK);
	buildInputBox(&(destination->inputBoxes[1]), 450, 150, OBJECT_WIDTH + 100,
 1002b9c:	e0bfff17 	ldw	r2,-4(fp)
 1002ba0:	10805d17 	ldw	r2,372(r2)
 1002ba4:	11004704 	addi	r4,r2,284
 1002ba8:	00800784 	movi	r2,30
 1002bac:	d8800015 	stw	r2,0(sp)
 1002bb0:	00800044 	movi	r2,1
 1002bb4:	d8800115 	stw	r2,4(sp)
 1002bb8:	d8000215 	stw	zero,8(sp)
 1002bbc:	d8000315 	stw	zero,12(sp)
 1002bc0:	01407084 	movi	r5,450
 1002bc4:	01802584 	movi	r6,150
 1002bc8:	01c03e84 	movi	r7,250
 1002bcc:	100a8c80 	call	100a8c8 <buildInputBox>
			OBJECT_HEIGHT / 2, WHITE, BLACK, BLACK);
	buildInputBox(&(destination->inputBoxes[2]), 450, 200, OBJECT_WIDTH + 100,
 1002bd0:	e0bfff17 	ldw	r2,-4(fp)
 1002bd4:	10805d17 	ldw	r2,372(r2)
 1002bd8:	11008e04 	addi	r4,r2,568
 1002bdc:	00800784 	movi	r2,30
 1002be0:	d8800015 	stw	r2,0(sp)
 1002be4:	00800044 	movi	r2,1
 1002be8:	d8800115 	stw	r2,4(sp)
 1002bec:	d8000215 	stw	zero,8(sp)
 1002bf0:	d8000315 	stw	zero,12(sp)
 1002bf4:	01407084 	movi	r5,450
 1002bf8:	01803204 	movi	r6,200
 1002bfc:	01c03e84 	movi	r7,250
 1002c00:	100a8c80 	call	100a8c8 <buildInputBox>
			OBJECT_HEIGHT / 2, WHITE, BLACK, BLACK);
	buildInputBox(&(destination->inputBoxes[3]), 450, 250, OBJECT_WIDTH + 100,
 1002c04:	e0bfff17 	ldw	r2,-4(fp)
 1002c08:	10805d17 	ldw	r2,372(r2)
 1002c0c:	1100d504 	addi	r4,r2,852
 1002c10:	00800784 	movi	r2,30
 1002c14:	d8800015 	stw	r2,0(sp)
 1002c18:	00800044 	movi	r2,1
 1002c1c:	d8800115 	stw	r2,4(sp)
 1002c20:	d8000215 	stw	zero,8(sp)
 1002c24:	d8000315 	stw	zero,12(sp)
 1002c28:	01407084 	movi	r5,450
 1002c2c:	01803e84 	movi	r6,250
 1002c30:	01c03e84 	movi	r7,250
 1002c34:	100a8c80 	call	100a8c8 <buildInputBox>
			OBJECT_HEIGHT / 2, WHITE, BLACK, BLACK);

}
 1002c38:	e037883a 	mov	sp,fp
 1002c3c:	dfc00117 	ldw	ra,4(sp)
 1002c40:	df000017 	ldw	fp,0(sp)
 1002c44:	dec00204 	addi	sp,sp,8
 1002c48:	f800283a 	ret

01002c4c <buildMapPage>:

void buildMapPage(Page *Map) {
 1002c4c:	defff604 	addi	sp,sp,-40
 1002c50:	dfc00915 	stw	ra,36(sp)
 1002c54:	df000815 	stw	fp,32(sp)
 1002c58:	df000804 	addi	fp,sp,32
 1002c5c:	e13fff15 	stw	r4,-4(fp)

	Map->buttons = malloc(sizeof(Button) * 15);
 1002c60:	01009604 	movi	r4,600
 1002c64:	1014b200 	call	1014b20 <malloc>
 1002c68:	1007883a 	mov	r3,r2
 1002c6c:	e0bfff17 	ldw	r2,-4(fp)
 1002c70:	10c00815 	stw	r3,32(r2)
	Map->objects = malloc(sizeof(Object) * 5);
 1002c74:	01002d04 	movi	r4,180
 1002c78:	1014b200 	call	1014b20 <malloc>
 1002c7c:	1007883a 	mov	r3,r2
 1002c80:	e0bfff17 	ldw	r2,-4(fp)
 1002c84:	10c00915 	stw	r3,36(r2)
	Map->numButtons = 15;
 1002c88:	e0ffff17 	ldw	r3,-4(fp)
 1002c8c:	008003c4 	movi	r2,15
 1002c90:	18800315 	stw	r2,12(r3)
	Map->numObjects = 5;
 1002c94:	e0ffff17 	ldw	r3,-4(fp)
 1002c98:	00800144 	movi	r2,5
 1002c9c:	18800415 	stw	r2,16(r3)
	Map->backColour = GRAY_REPEAT;
 1002ca0:	e0ffff17 	ldw	r3,-4(fp)
 1002ca4:	00802444 	movi	r2,145
 1002ca8:	18800015 	stw	r2,0(r3)
	Map->numInputBoxes = 0;
 1002cac:	e0bfff17 	ldw	r2,-4(fp)
 1002cb0:	10000215 	stw	zero,8(r2)
	Map->numSDBoxes = 0;
 1002cb4:	e0bfff17 	ldw	r2,-4(fp)
 1002cb8:	10000515 	stw	zero,20(r2)
	//Kaiser Red
	buildButton(700, 420, BUTTON_WIDTH, BUTTON_HEIGHT, BLACK, AQUA, BLACK,
 1002cbc:	e0bfff17 	ldw	r2,-4(fp)
 1002cc0:	10c00817 	ldw	r3,32(r2)
 1002cc4:	d1271117 	ldw	r4,-25532(gp)
 1002cc8:	d8000015 	stw	zero,0(sp)
 1002ccc:	00800f44 	movi	r2,61
 1002cd0:	d8800115 	stw	r2,4(sp)
 1002cd4:	d8000215 	stw	zero,8(sp)
 1002cd8:	008040f4 	movhi	r2,259
 1002cdc:	10a4b904 	addi	r2,r2,-27932
 1002ce0:	d8800315 	stw	r2,12(sp)
 1002ce4:	d8c00415 	stw	r3,16(sp)
 1002ce8:	00800104 	movi	r2,4
 1002cec:	d8800515 	stw	r2,20(sp)
 1002cf0:	d9000615 	stw	r4,24(sp)
 1002cf4:	0100af04 	movi	r4,700
 1002cf8:	01406904 	movi	r5,420
 1002cfc:	01802584 	movi	r6,150
 1002d00:	01c00c84 	movi	r7,50
 1002d04:	1000e8c0 	call	1000e8c <buildButton>
			"Menu", &(Map->buttons[0]), strlen("Menu"), home);
	buildButton(190, 90, 120, 200, RED, RED, RED, "Kaiser", &(Map->buttons[1]),
 1002d08:	e0bfff17 	ldw	r2,-4(fp)
 1002d0c:	10800817 	ldw	r2,32(r2)
 1002d10:	10c00a04 	addi	r3,r2,40
 1002d14:	00800084 	movi	r2,2
 1002d18:	d8800015 	stw	r2,0(sp)
 1002d1c:	00800084 	movi	r2,2
 1002d20:	d8800115 	stw	r2,4(sp)
 1002d24:	00800084 	movi	r2,2
 1002d28:	d8800215 	stw	r2,8(sp)
 1002d2c:	008040f4 	movhi	r2,259
 1002d30:	10a4bb04 	addi	r2,r2,-27924
 1002d34:	d8800315 	stw	r2,12(sp)
 1002d38:	d8c00415 	stw	r3,16(sp)
 1002d3c:	00800184 	movi	r2,6
 1002d40:	d8800515 	stw	r2,20(sp)
 1002d44:	d8000615 	stw	zero,24(sp)
 1002d48:	01002f84 	movi	r4,190
 1002d4c:	01401684 	movi	r5,90
 1002d50:	01801e04 	movi	r6,120
 1002d54:	01c03204 	movi	r7,200
 1002d58:	1000e8c0 	call	1000e8c <buildButton>
			strlen("Kaiser"), NULL);
	buildButton(190, 196, 85, 10, RED, RED, RED, "", &(Map->buttons[2]),
 1002d5c:	e0bfff17 	ldw	r2,-4(fp)
 1002d60:	10800817 	ldw	r2,32(r2)
 1002d64:	10c01404 	addi	r3,r2,80
 1002d68:	00800084 	movi	r2,2
 1002d6c:	d8800015 	stw	r2,0(sp)
 1002d70:	00800084 	movi	r2,2
 1002d74:	d8800115 	stw	r2,4(sp)
 1002d78:	00800084 	movi	r2,2
 1002d7c:	d8800215 	stw	r2,8(sp)
 1002d80:	008040f4 	movhi	r2,259
 1002d84:	10a4bd04 	addi	r2,r2,-27916
 1002d88:	d8800315 	stw	r2,12(sp)
 1002d8c:	d8c00415 	stw	r3,16(sp)
 1002d90:	d8000515 	stw	zero,20(sp)
 1002d94:	d8000615 	stw	zero,24(sp)
 1002d98:	01002f84 	movi	r4,190
 1002d9c:	01403104 	movi	r5,196
 1002da0:	01801544 	movi	r6,85
 1002da4:	01c00284 	movi	r7,10
 1002da8:	1000e8c0 	call	1000e8c <buildButton>
			strlen(""), NULL);
	buildButton(293, 40, 85, 20, RED, RED, RED, "", &(Map->buttons[3]),
 1002dac:	e0bfff17 	ldw	r2,-4(fp)
 1002db0:	10800817 	ldw	r2,32(r2)
 1002db4:	10c01e04 	addi	r3,r2,120
 1002db8:	00800084 	movi	r2,2
 1002dbc:	d8800015 	stw	r2,0(sp)
 1002dc0:	00800084 	movi	r2,2
 1002dc4:	d8800115 	stw	r2,4(sp)
 1002dc8:	00800084 	movi	r2,2
 1002dcc:	d8800215 	stw	r2,8(sp)
 1002dd0:	008040f4 	movhi	r2,259
 1002dd4:	10a4bd04 	addi	r2,r2,-27916
 1002dd8:	d8800315 	stw	r2,12(sp)
 1002ddc:	d8c00415 	stw	r3,16(sp)
 1002de0:	d8000515 	stw	zero,20(sp)
 1002de4:	d8000615 	stw	zero,24(sp)
 1002de8:	01004944 	movi	r4,293
 1002dec:	01400a04 	movi	r5,40
 1002df0:	01801544 	movi	r6,85
 1002df4:	01c00504 	movi	r7,20
 1002df8:	1000e8c0 	call	1000e8c <buildButton>
			strlen(""), NULL);
	//Mcleod Yellow
	buildButton(190, 276, 35, 150, ORANGE, ORANGE, ORANGE, "",
 1002dfc:	e0bfff17 	ldw	r2,-4(fp)
 1002e00:	10800817 	ldw	r2,32(r2)
 1002e04:	10c02804 	addi	r3,r2,160
 1002e08:	00800744 	movi	r2,29
 1002e0c:	d8800015 	stw	r2,0(sp)
 1002e10:	00800744 	movi	r2,29
 1002e14:	d8800115 	stw	r2,4(sp)
 1002e18:	00800744 	movi	r2,29
 1002e1c:	d8800215 	stw	r2,8(sp)
 1002e20:	008040f4 	movhi	r2,259
 1002e24:	10a4bd04 	addi	r2,r2,-27916
 1002e28:	d8800315 	stw	r2,12(sp)
 1002e2c:	d8c00415 	stw	r3,16(sp)
 1002e30:	d8000515 	stw	zero,20(sp)
 1002e34:	d8000615 	stw	zero,24(sp)
 1002e38:	01002f84 	movi	r4,190
 1002e3c:	01404504 	movi	r5,276
 1002e40:	018008c4 	movi	r6,35
 1002e44:	01c02584 	movi	r7,150
 1002e48:	1000e8c0 	call	1000e8c <buildButton>
			&(Map->buttons[4]), strlen(""), NULL);
	buildButton(288, 370, 230, 47, ORANGE, ORANGE, ORANGE, "MacLeod",
 1002e4c:	e0bfff17 	ldw	r2,-4(fp)
 1002e50:	10800817 	ldw	r2,32(r2)
 1002e54:	10c03204 	addi	r3,r2,200
 1002e58:	00800744 	movi	r2,29
 1002e5c:	d8800015 	stw	r2,0(sp)
 1002e60:	00800744 	movi	r2,29
 1002e64:	d8800115 	stw	r2,4(sp)
 1002e68:	00800744 	movi	r2,29
 1002e6c:	d8800215 	stw	r2,8(sp)
 1002e70:	008040f4 	movhi	r2,259
 1002e74:	10a4be04 	addi	r2,r2,-27912
 1002e78:	d8800315 	stw	r2,12(sp)
 1002e7c:	d8c00415 	stw	r3,16(sp)
 1002e80:	008001c4 	movi	r2,7
 1002e84:	d8800515 	stw	r2,20(sp)
 1002e88:	d8000615 	stw	zero,24(sp)
 1002e8c:	01004804 	movi	r4,288
 1002e90:	01405c84 	movi	r5,370
 1002e94:	01803984 	movi	r6,230
 1002e98:	01c00bc4 	movi	r7,47
 1002e9c:	1000e8c0 	call	1000e8c <buildButton>
			&(Map->buttons[5]), strlen("MacLeod"), NULL);
	buildButton(406, 370, 10, 23, ORANGE, ORANGE, ORANGE, "",
 1002ea0:	e0bfff17 	ldw	r2,-4(fp)
 1002ea4:	10800817 	ldw	r2,32(r2)
 1002ea8:	10c03c04 	addi	r3,r2,240
 1002eac:	00800744 	movi	r2,29
 1002eb0:	d8800015 	stw	r2,0(sp)
 1002eb4:	00800744 	movi	r2,29
 1002eb8:	d8800115 	stw	r2,4(sp)
 1002ebc:	00800744 	movi	r2,29
 1002ec0:	d8800215 	stw	r2,8(sp)
 1002ec4:	008040f4 	movhi	r2,259
 1002ec8:	10a4bd04 	addi	r2,r2,-27916
 1002ecc:	d8800315 	stw	r2,12(sp)
 1002ed0:	d8c00415 	stw	r3,16(sp)
 1002ed4:	d8000515 	stw	zero,20(sp)
 1002ed8:	d8000615 	stw	zero,24(sp)
 1002edc:	01006584 	movi	r4,406
 1002ee0:	01405c84 	movi	r5,370
 1002ee4:	01800284 	movi	r6,10
 1002ee8:	01c005c4 	movi	r7,23
 1002eec:	1000e8c0 	call	1000e8c <buildButton>
			&(Map->buttons[6]), strlen(""), NULL);
	//CEME
	buildButton(500, 39, 350, 74, INDIGO, INDIGO, INDIGO,
 1002ef0:	e0bfff17 	ldw	r2,-4(fp)
 1002ef4:	10800817 	ldw	r2,32(r2)
 1002ef8:	10c04604 	addi	r3,r2,280
 1002efc:	00801504 	movi	r2,84
 1002f00:	d8800015 	stw	r2,0(sp)
 1002f04:	00801504 	movi	r2,84
 1002f08:	d8800115 	stw	r2,4(sp)
 1002f0c:	00801504 	movi	r2,84
 1002f10:	d8800215 	stw	r2,8(sp)
 1002f14:	008040f4 	movhi	r2,259
 1002f18:	10a4c004 	addi	r2,r2,-27904
 1002f1c:	d8800315 	stw	r2,12(sp)
 1002f20:	d8c00415 	stw	r3,16(sp)
 1002f24:	00800504 	movi	r2,20
 1002f28:	d8800515 	stw	r2,20(sp)
 1002f2c:	d8000615 	stw	zero,24(sp)
 1002f30:	01007d04 	movi	r4,500
 1002f34:	014009c4 	movi	r5,39
 1002f38:	01805784 	movi	r6,350
 1002f3c:	01c01284 	movi	r7,74
 1002f40:	1000e8c0 	call	1000e8c <buildButton>
			"Civil and Mechanical", &(Map->buttons[7]),
			strlen("Civil and Mechanical"), NULL);
	buildButton(455, 170, 70, 240, INDIGO, INDIGO, INDIGO, "",
 1002f44:	e0bfff17 	ldw	r2,-4(fp)
 1002f48:	10800817 	ldw	r2,32(r2)
 1002f4c:	10c05004 	addi	r3,r2,320
 1002f50:	00801504 	movi	r2,84
 1002f54:	d8800015 	stw	r2,0(sp)
 1002f58:	00801504 	movi	r2,84
 1002f5c:	d8800115 	stw	r2,4(sp)
 1002f60:	00801504 	movi	r2,84
 1002f64:	d8800215 	stw	r2,8(sp)
 1002f68:	008040f4 	movhi	r2,259
 1002f6c:	10a4bd04 	addi	r2,r2,-27916
 1002f70:	d8800315 	stw	r2,12(sp)
 1002f74:	d8c00415 	stw	r3,16(sp)
 1002f78:	d8000515 	stw	zero,20(sp)
 1002f7c:	d8000615 	stw	zero,24(sp)
 1002f80:	010071c4 	movi	r4,455
 1002f84:	01402a84 	movi	r5,170
 1002f88:	01801184 	movi	r6,70
 1002f8c:	01c03c04 	movi	r7,240
 1002f90:	1000e8c0 	call	1000e8c <buildButton>
			&(Map->buttons[8]), strlen(""), NULL);
	buildButton(660, 120, 100, 200, INDIGO, INDIGO, INDIGO, "",
 1002f94:	e0bfff17 	ldw	r2,-4(fp)
 1002f98:	10800817 	ldw	r2,32(r2)
 1002f9c:	10c05a04 	addi	r3,r2,360
 1002fa0:	00801504 	movi	r2,84
 1002fa4:	d8800015 	stw	r2,0(sp)
 1002fa8:	00801504 	movi	r2,84
 1002fac:	d8800115 	stw	r2,4(sp)
 1002fb0:	00801504 	movi	r2,84
 1002fb4:	d8800215 	stw	r2,8(sp)
 1002fb8:	008040f4 	movhi	r2,259
 1002fbc:	10a4bd04 	addi	r2,r2,-27916
 1002fc0:	d8800315 	stw	r2,12(sp)
 1002fc4:	d8c00415 	stw	r3,16(sp)
 1002fc8:	d8000515 	stw	zero,20(sp)
 1002fcc:	d8000615 	stw	zero,24(sp)
 1002fd0:	0100a504 	movi	r4,660
 1002fd4:	01401e04 	movi	r5,120
 1002fd8:	01801904 	movi	r6,100
 1002fdc:	01c03204 	movi	r7,200
 1002fe0:	1000e8c0 	call	1000e8c <buildButton>
			&(Map->buttons[9]), strlen(""), NULL);
	//CHEESE
	buildButton(330, 250, 90, 60, WHITE, WHITE, BLACK, "CHEESE",
 1002fe4:	e0bfff17 	ldw	r2,-4(fp)
 1002fe8:	10800817 	ldw	r2,32(r2)
 1002fec:	10c06404 	addi	r3,r2,400
 1002ff0:	00800044 	movi	r2,1
 1002ff4:	d8800015 	stw	r2,0(sp)
 1002ff8:	00800044 	movi	r2,1
 1002ffc:	d8800115 	stw	r2,4(sp)
 1003000:	d8000215 	stw	zero,8(sp)
 1003004:	008040f4 	movhi	r2,259
 1003008:	10a4c604 	addi	r2,r2,-27880
 100300c:	d8800315 	stw	r2,12(sp)
 1003010:	d8c00415 	stw	r3,16(sp)
 1003014:	00800184 	movi	r2,6
 1003018:	d8800515 	stw	r2,20(sp)
 100301c:	d8000615 	stw	zero,24(sp)
 1003020:	01005284 	movi	r4,330
 1003024:	01403e84 	movi	r5,250
 1003028:	01801684 	movi	r6,90
 100302c:	01c00f04 	movi	r7,60
 1003030:	1000e8c0 	call	1000e8c <buildButton>
			&(Map->buttons[10]), strlen("CHEESE"), NULL);
	//Brimacombe Building
	buildButton(500, 390, 90, 170, ORANGE_RED, ORANGE_RED, ORANGE_RED, "",
 1003034:	e0bfff17 	ldw	r2,-4(fp)
 1003038:	10800817 	ldw	r2,32(r2)
 100303c:	10c06e04 	addi	r3,r2,440
 1003040:	008006c4 	movi	r2,27
 1003044:	d8800015 	stw	r2,0(sp)
 1003048:	008006c4 	movi	r2,27
 100304c:	d8800115 	stw	r2,4(sp)
 1003050:	008006c4 	movi	r2,27
 1003054:	d8800215 	stw	r2,8(sp)
 1003058:	008040f4 	movhi	r2,259
 100305c:	10a4bd04 	addi	r2,r2,-27916
 1003060:	d8800315 	stw	r2,12(sp)
 1003064:	d8c00415 	stw	r3,16(sp)
 1003068:	d8000515 	stw	zero,20(sp)
 100306c:	d8000615 	stw	zero,24(sp)
 1003070:	01007d04 	movi	r4,500
 1003074:	01406184 	movi	r5,390
 1003078:	01801684 	movi	r6,90
 100307c:	01c02a84 	movi	r7,170
 1003080:	1000e8c0 	call	1000e8c <buildButton>
			&(Map->buttons[11]), strlen(""), NULL);
	buildButton(630, 340, 190, 50, ORANGE_RED, ORANGE_RED, ORANGE_RED,
 1003084:	e0bfff17 	ldw	r2,-4(fp)
 1003088:	10800817 	ldw	r2,32(r2)
 100308c:	10c07804 	addi	r3,r2,480
 1003090:	008006c4 	movi	r2,27
 1003094:	d8800015 	stw	r2,0(sp)
 1003098:	008006c4 	movi	r2,27
 100309c:	d8800115 	stw	r2,4(sp)
 10030a0:	008006c4 	movi	r2,27
 10030a4:	d8800215 	stw	r2,8(sp)
 10030a8:	008040f4 	movhi	r2,259
 10030ac:	10a4c804 	addi	r2,r2,-27872
 10030b0:	d8800315 	stw	r2,12(sp)
 10030b4:	d8c00415 	stw	r3,16(sp)
 10030b8:	00800244 	movi	r2,9
 10030bc:	d8800515 	stw	r2,20(sp)
 10030c0:	d8000615 	stw	zero,24(sp)
 10030c4:	01009d84 	movi	r4,630
 10030c8:	01405504 	movi	r5,340
 10030cc:	01802f84 	movi	r6,190
 10030d0:	01c00c84 	movi	r7,50
 10030d4:	1000e8c0 	call	1000e8c <buildButton>
			"Brimacomb", &(Map->buttons[12]), strlen("Brimacomb"), NULL);
	//ICICS
	buildButton(230, 450, 180, 80, CORN_FLOWER_BLUE, CORN_FLOWER_BLUE,
 10030d8:	e0bfff17 	ldw	r2,-4(fp)
 10030dc:	10800817 	ldw	r2,32(r2)
 10030e0:	10c08204 	addi	r3,r2,520
 10030e4:	008011c4 	movi	r2,71
 10030e8:	d8800015 	stw	r2,0(sp)
 10030ec:	008011c4 	movi	r2,71
 10030f0:	d8800115 	stw	r2,4(sp)
 10030f4:	008011c4 	movi	r2,71
 10030f8:	d8800215 	stw	r2,8(sp)
 10030fc:	008040f4 	movhi	r2,259
 1003100:	10a4cb04 	addi	r2,r2,-27860
 1003104:	d8800315 	stw	r2,12(sp)
 1003108:	d8c00415 	stw	r3,16(sp)
 100310c:	00800144 	movi	r2,5
 1003110:	d8800515 	stw	r2,20(sp)
 1003114:	d8000615 	stw	zero,24(sp)
 1003118:	01003984 	movi	r4,230
 100311c:	01407084 	movi	r5,450
 1003120:	01802d04 	movi	r6,180
 1003124:	01c01404 	movi	r7,80
 1003128:	1000e8c0 	call	1000e8c <buildButton>
			CORN_FLOWER_BLUE, "ICICS", &(Map->buttons[13]), strlen("ICICS"),
			NULL);
	buildButton(135, 445, 10, 30, CORN_FLOWER_BLUE, CORN_FLOWER_BLUE,
 100312c:	e0bfff17 	ldw	r2,-4(fp)
 1003130:	10800817 	ldw	r2,32(r2)
 1003134:	10c08c04 	addi	r3,r2,560
 1003138:	008011c4 	movi	r2,71
 100313c:	d8800015 	stw	r2,0(sp)
 1003140:	008011c4 	movi	r2,71
 1003144:	d8800115 	stw	r2,4(sp)
 1003148:	008011c4 	movi	r2,71
 100314c:	d8800215 	stw	r2,8(sp)
 1003150:	008040f4 	movhi	r2,259
 1003154:	10a4bd04 	addi	r2,r2,-27916
 1003158:	d8800315 	stw	r2,12(sp)
 100315c:	d8c00415 	stw	r3,16(sp)
 1003160:	d8000515 	stw	zero,20(sp)
 1003164:	d8000615 	stw	zero,24(sp)
 1003168:	010021c4 	movi	r4,135
 100316c:	01406f44 	movi	r5,445
 1003170:	01800284 	movi	r6,10
 1003174:	01c00784 	movi	r7,30
 1003178:	1000e8c0 	call	1000e8c <buildButton>
			CORN_FLOWER_BLUE, "", &(Map->buttons[14]), strlen(""), NULL);

	//GRASS
	buildObject(50, 120, 70, 200, FOREST_GREEN, FOREST_GREEN, FOREST_GREEN, "",
 100317c:	e0bfff17 	ldw	r2,-4(fp)
 1003180:	10c00917 	ldw	r3,36(r2)
 1003184:	00800b84 	movi	r2,46
 1003188:	d8800015 	stw	r2,0(sp)
 100318c:	00800b84 	movi	r2,46
 1003190:	d8800115 	stw	r2,4(sp)
 1003194:	00800b84 	movi	r2,46
 1003198:	d8800215 	stw	r2,8(sp)
 100319c:	008040f4 	movhi	r2,259
 10031a0:	10a4bd04 	addi	r2,r2,-27916
 10031a4:	d8800315 	stw	r2,12(sp)
 10031a8:	d8c00415 	stw	r3,16(sp)
 10031ac:	d8000515 	stw	zero,20(sp)
 10031b0:	01000c84 	movi	r4,50
 10031b4:	01401e04 	movi	r5,120
 10031b8:	01801184 	movi	r6,70
 10031bc:	01c03204 	movi	r7,200
 10031c0:	10023f80 	call	10023f8 <buildObject>
			&(Map->objects[0]), strlen(""));
	buildObject(50, 340, 70, 200, FOREST_GREEN, FOREST_GREEN, FOREST_GREEN, "",
 10031c4:	e0bfff17 	ldw	r2,-4(fp)
 10031c8:	10800917 	ldw	r2,36(r2)
 10031cc:	10c00904 	addi	r3,r2,36
 10031d0:	00800b84 	movi	r2,46
 10031d4:	d8800015 	stw	r2,0(sp)
 10031d8:	00800b84 	movi	r2,46
 10031dc:	d8800115 	stw	r2,4(sp)
 10031e0:	00800b84 	movi	r2,46
 10031e4:	d8800215 	stw	r2,8(sp)
 10031e8:	008040f4 	movhi	r2,259
 10031ec:	10a4bd04 	addi	r2,r2,-27916
 10031f0:	d8800315 	stw	r2,12(sp)
 10031f4:	d8c00415 	stw	r3,16(sp)
 10031f8:	d8000515 	stw	zero,20(sp)
 10031fc:	01000c84 	movi	r4,50
 1003200:	01405504 	movi	r5,340
 1003204:	01801184 	movi	r6,70
 1003208:	01c03204 	movi	r7,200
 100320c:	10023f80 	call	10023f8 <buildObject>
			&(Map->objects[1]), strlen(""));
	//Main Mall road
	buildObject(95, 230, 156, 15, LIGHT_GRAY, LIGHT_GRAY, LIGHT_GRAY, "",
 1003210:	e0bfff17 	ldw	r2,-4(fp)
 1003214:	10800917 	ldw	r2,36(r2)
 1003218:	10c01204 	addi	r3,r2,72
 100321c:	008024c4 	movi	r2,147
 1003220:	d8800015 	stw	r2,0(sp)
 1003224:	008024c4 	movi	r2,147
 1003228:	d8800115 	stw	r2,4(sp)
 100322c:	008024c4 	movi	r2,147
 1003230:	d8800215 	stw	r2,8(sp)
 1003234:	008040f4 	movhi	r2,259
 1003238:	10a4bd04 	addi	r2,r2,-27916
 100323c:	d8800315 	stw	r2,12(sp)
 1003240:	d8c00415 	stw	r3,16(sp)
 1003244:	d8000515 	stw	zero,20(sp)
 1003248:	010017c4 	movi	r4,95
 100324c:	01403984 	movi	r5,230
 1003250:	01802704 	movi	r6,156
 1003254:	01c003c4 	movi	r7,15
 1003258:	10023f80 	call	10023f8 <buildObject>
			&(Map->objects[2]), strlen(""));
	//Engineering Road
	buildObject(435, 385, 15, 189, LIGHT_GRAY, LIGHT_GRAY, LIGHT_GRAY, "",
 100325c:	e0bfff17 	ldw	r2,-4(fp)
 1003260:	10800917 	ldw	r2,36(r2)
 1003264:	10c01b04 	addi	r3,r2,108
 1003268:	008024c4 	movi	r2,147
 100326c:	d8800015 	stw	r2,0(sp)
 1003270:	008024c4 	movi	r2,147
 1003274:	d8800115 	stw	r2,4(sp)
 1003278:	008024c4 	movi	r2,147
 100327c:	d8800215 	stw	r2,8(sp)
 1003280:	008040f4 	movhi	r2,259
 1003284:	10a4bd04 	addi	r2,r2,-27916
 1003288:	d8800315 	stw	r2,12(sp)
 100328c:	d8c00415 	stw	r3,16(sp)
 1003290:	d8000515 	stw	zero,20(sp)
 1003294:	01006cc4 	movi	r4,435
 1003298:	01406044 	movi	r5,385
 100329c:	018003c4 	movi	r6,15
 10032a0:	01c02f44 	movi	r7,189
 10032a4:	10023f80 	call	10023f8 <buildObject>
			&(Map->objects[3]), strlen(""));
	//.road.
	buildObject(100, 200, 20, 600, LIGHT_GRAY, LIGHT_GRAY, LIGHT_GRAY, "",
 10032a8:	e0bfff17 	ldw	r2,-4(fp)
 10032ac:	10800917 	ldw	r2,36(r2)
 10032b0:	10c02404 	addi	r3,r2,144
 10032b4:	008024c4 	movi	r2,147
 10032b8:	d8800015 	stw	r2,0(sp)
 10032bc:	008024c4 	movi	r2,147
 10032c0:	d8800115 	stw	r2,4(sp)
 10032c4:	008024c4 	movi	r2,147
 10032c8:	d8800215 	stw	r2,8(sp)
 10032cc:	008040f4 	movhi	r2,259
 10032d0:	10a4bd04 	addi	r2,r2,-27916
 10032d4:	d8800315 	stw	r2,12(sp)
 10032d8:	d8c00415 	stw	r3,16(sp)
 10032dc:	d8000515 	stw	zero,20(sp)
 10032e0:	01001904 	movi	r4,100
 10032e4:	01403204 	movi	r5,200
 10032e8:	01800504 	movi	r6,20
 10032ec:	01c09604 	movi	r7,600
 10032f0:	10023f80 	call	10023f8 <buildObject>
			&(Map->objects[4]), strlen(""));
}
 10032f4:	e037883a 	mov	sp,fp
 10032f8:	dfc00117 	ldw	ra,4(sp)
 10032fc:	df000017 	ldw	fp,0(sp)
 1003300:	dec00204 	addi	sp,sp,8
 1003304:	f800283a 	ret

01003308 <buildSelfPage>:

void buildSelfPage(Page *self) {
 1003308:	defff604 	addi	sp,sp,-40
 100330c:	dfc00915 	stw	ra,36(sp)
 1003310:	df000815 	stw	fp,32(sp)
 1003314:	df000804 	addi	fp,sp,32
 1003318:	e13fff15 	stw	r4,-4(fp)

	// Definitions for "Where am I?"
	// Memory Management
	self->buttons = malloc(sizeof(Button) * 1);
 100331c:	01000a04 	movi	r4,40
 1003320:	1014b200 	call	1014b20 <malloc>
 1003324:	1007883a 	mov	r3,r2
 1003328:	e0bfff17 	ldw	r2,-4(fp)
 100332c:	10c00815 	stw	r3,32(r2)
	self->objects = malloc(sizeof(Object) * 7);
 1003330:	01003f04 	movi	r4,252
 1003334:	1014b200 	call	1014b20 <malloc>
 1003338:	1007883a 	mov	r3,r2
 100333c:	e0bfff17 	ldw	r2,-4(fp)
 1003340:	10c00915 	stw	r3,36(r2)
	self->inputBoxes = malloc(sizeof(InputBox) * 4);
 1003344:	01011c04 	movi	r4,1136
 1003348:	1014b200 	call	1014b20 <malloc>
 100334c:	1007883a 	mov	r3,r2
 1003350:	e0bfff17 	ldw	r2,-4(fp)
 1003354:	10c05d15 	stw	r3,372(r2)
	self->sdBoxes = malloc(sizeof(SDBox) * 4);
 1003358:	01002404 	movi	r4,144
 100335c:	1014b200 	call	1014b20 <malloc>
 1003360:	1007883a 	mov	r3,r2
 1003364:	e0bfff17 	ldw	r2,-4(fp)
 1003368:	10c05e15 	stw	r3,376(r2)
	self->numButtons = 1;
 100336c:	e0ffff17 	ldw	r3,-4(fp)
 1003370:	00800044 	movi	r2,1
 1003374:	18800315 	stw	r2,12(r3)
	self->numObjects = 7;
 1003378:	e0ffff17 	ldw	r3,-4(fp)
 100337c:	008001c4 	movi	r2,7
 1003380:	18800415 	stw	r2,16(r3)
	self->backColour = WHITE;
 1003384:	e0ffff17 	ldw	r3,-4(fp)
 1003388:	00800044 	movi	r2,1
 100338c:	18800015 	stw	r2,0(r3)
	self->numInputBoxes = 4;
 1003390:	e0ffff17 	ldw	r3,-4(fp)
 1003394:	00800104 	movi	r2,4
 1003398:	18800215 	stw	r2,8(r3)
	self->numSDBoxes = 4;
 100339c:	e0ffff17 	ldw	r3,-4(fp)
 10033a0:	00800104 	movi	r2,4
 10033a4:	18800515 	stw	r2,20(r3)
	// Buttons
	buildButton(160, 330, BUTTON_WIDTH, BUTTON_HEIGHT, BLACK, AQUA, BLACK,
 10033a8:	e0bfff17 	ldw	r2,-4(fp)
 10033ac:	10c00817 	ldw	r3,32(r2)
 10033b0:	d1271117 	ldw	r4,-25532(gp)
 10033b4:	d8000015 	stw	zero,0(sp)
 10033b8:	00800f44 	movi	r2,61
 10033bc:	d8800115 	stw	r2,4(sp)
 10033c0:	d8000215 	stw	zero,8(sp)
 10033c4:	008040f4 	movhi	r2,259
 10033c8:	10a49a04 	addi	r2,r2,-28056
 10033cc:	d8800315 	stw	r2,12(sp)
 10033d0:	d8c00415 	stw	r3,16(sp)
 10033d4:	00800104 	movi	r2,4
 10033d8:	d8800515 	stw	r2,20(sp)
 10033dc:	d9000615 	stw	r4,24(sp)
 10033e0:	01002804 	movi	r4,160
 10033e4:	01405284 	movi	r5,330
 10033e8:	01802584 	movi	r6,150
 10033ec:	01c00c84 	movi	r7,50
 10033f0:	1000e8c0 	call	1000e8c <buildButton>
			"Home", &(self->buttons[0]), strlen("Home"), home);

	//Save Plaintext To SD
	buildSDBox(160, 400, BUTTON_WIDTH, BUTTON_HEIGHT, BLACK, AQUA, BLACK,
 10033f4:	e0bfff17 	ldw	r2,-4(fp)
 10033f8:	10c05e17 	ldw	r3,376(r2)
 10033fc:	d8000015 	stw	zero,0(sp)
 1003400:	00800f44 	movi	r2,61
 1003404:	d8800115 	stw	r2,4(sp)
 1003408:	d8000215 	stw	zero,8(sp)
 100340c:	008040f4 	movhi	r2,259
 1003410:	10a49c04 	addi	r2,r2,-28048
 1003414:	d8800315 	stw	r2,12(sp)
 1003418:	d8c00415 	stw	r3,16(sp)
 100341c:	00800384 	movi	r2,14
 1003420:	d8800515 	stw	r2,20(sp)
 1003424:	01002804 	movi	r4,160
 1003428:	01406404 	movi	r5,400
 100342c:	01802584 	movi	r6,150
 1003430:	01c00c84 	movi	r7,50
 1003434:	100aafc0 	call	100aafc <buildSDBox>
			"Save Plaintext", &(self->sdBoxes[0]), strlen("Save Plaintext"));
	//Save Encrypted To SD
	buildSDBox(320, 400, BUTTON_WIDTH, BUTTON_HEIGHT, BLACK, AQUA, BLACK,
 1003438:	e0bfff17 	ldw	r2,-4(fp)
 100343c:	10805e17 	ldw	r2,376(r2)
 1003440:	10c00904 	addi	r3,r2,36
 1003444:	d8000015 	stw	zero,0(sp)
 1003448:	00800f44 	movi	r2,61
 100344c:	d8800115 	stw	r2,4(sp)
 1003450:	d8000215 	stw	zero,8(sp)
 1003454:	008040f4 	movhi	r2,259
 1003458:	10a4a004 	addi	r2,r2,-28032
 100345c:	d8800315 	stw	r2,12(sp)
 1003460:	d8c00415 	stw	r3,16(sp)
 1003464:	00800384 	movi	r2,14
 1003468:	d8800515 	stw	r2,20(sp)
 100346c:	01005004 	movi	r4,320
 1003470:	01406404 	movi	r5,400
 1003474:	01802584 	movi	r6,150
 1003478:	01c00c84 	movi	r7,50
 100347c:	100aafc0 	call	100aafc <buildSDBox>
			"Save Encrypted", &(self->sdBoxes[1]), strlen("Save Encrypted"));
	//Load from SD
	buildSDBox(480, 400, BUTTON_WIDTH, BUTTON_HEIGHT, BLACK, AQUA, BLACK,
 1003480:	e0bfff17 	ldw	r2,-4(fp)
 1003484:	10805e17 	ldw	r2,376(r2)
 1003488:	10c01204 	addi	r3,r2,72
 100348c:	d8000015 	stw	zero,0(sp)
 1003490:	00800f44 	movi	r2,61
 1003494:	d8800115 	stw	r2,4(sp)
 1003498:	d8000215 	stw	zero,8(sp)
 100349c:	008040f4 	movhi	r2,259
 10034a0:	10a4a404 	addi	r2,r2,-28016
 10034a4:	d8800315 	stw	r2,12(sp)
 10034a8:	d8c00415 	stw	r3,16(sp)
 10034ac:	00800244 	movi	r2,9
 10034b0:	d8800515 	stw	r2,20(sp)
 10034b4:	01007804 	movi	r4,480
 10034b8:	01406404 	movi	r5,400
 10034bc:	01802584 	movi	r6,150
 10034c0:	01c00c84 	movi	r7,50
 10034c4:	100aafc0 	call	100aafc <buildSDBox>
			"Load Data", &(self->sdBoxes[2]), strlen("Load Data"));

	buildSDBox(640, 400, BUTTON_WIDTH, BUTTON_HEIGHT, BLACK, AQUA, BLACK,
 10034c8:	e0bfff17 	ldw	r2,-4(fp)
 10034cc:	10805e17 	ldw	r2,376(r2)
 10034d0:	10c01b04 	addi	r3,r2,108
 10034d4:	d8000015 	stw	zero,0(sp)
 10034d8:	00800f44 	movi	r2,61
 10034dc:	d8800115 	stw	r2,4(sp)
 10034e0:	d8000215 	stw	zero,8(sp)
 10034e4:	008040f4 	movhi	r2,259
 10034e8:	10a4a704 	addi	r2,r2,-28004
 10034ec:	d8800315 	stw	r2,12(sp)
 10034f0:	d8c00415 	stw	r3,16(sp)
 10034f4:	008002c4 	movi	r2,11
 10034f8:	d8800515 	stw	r2,20(sp)
 10034fc:	0100a004 	movi	r4,640
 1003500:	01406404 	movi	r5,400
 1003504:	01802584 	movi	r6,150
 1003508:	01c00c84 	movi	r7,50
 100350c:	100aafc0 	call	100aafc <buildSDBox>
			"Load Secure", &(self->sdBoxes[3]), strlen("Load Secure"));

	// Info fields
	// Name
	buildObject(150, 50, OBJECT_WIDTH, OBJECT_HEIGHT, WHITE, WHITE, BLACK,
 1003510:	e0bfff17 	ldw	r2,-4(fp)
 1003514:	10c00917 	ldw	r3,36(r2)
 1003518:	00800044 	movi	r2,1
 100351c:	d8800015 	stw	r2,0(sp)
 1003520:	00800044 	movi	r2,1
 1003524:	d8800115 	stw	r2,4(sp)
 1003528:	d8000215 	stw	zero,8(sp)
 100352c:	008040f4 	movhi	r2,259
 1003530:	10a4cd04 	addi	r2,r2,-27852
 1003534:	d8800315 	stw	r2,12(sp)
 1003538:	d8c00415 	stw	r3,16(sp)
 100353c:	00800384 	movi	r2,14
 1003540:	d8800515 	stw	r2,20(sp)
 1003544:	01002584 	movi	r4,150
 1003548:	01400c84 	movi	r5,50
 100354c:	01802584 	movi	r6,150
 1003550:	01c00f04 	movi	r7,60
 1003554:	10023f80 	call	10023f8 <buildObject>
			"Your Name Is: ", &(self->objects[0]), strlen("Your Name Is: "));

	// Address
	buildObject(150, 100, OBJECT_WIDTH, OBJECT_HEIGHT, WHITE, WHITE, BLACK,
 1003558:	e0bfff17 	ldw	r2,-4(fp)
 100355c:	10800917 	ldw	r2,36(r2)
 1003560:	10c00904 	addi	r3,r2,36
 1003564:	00800044 	movi	r2,1
 1003568:	d8800015 	stw	r2,0(sp)
 100356c:	00800044 	movi	r2,1
 1003570:	d8800115 	stw	r2,4(sp)
 1003574:	d8000215 	stw	zero,8(sp)
 1003578:	008040f4 	movhi	r2,259
 100357c:	10a4b004 	addi	r2,r2,-27968
 1003580:	d8800315 	stw	r2,12(sp)
 1003584:	d8c00415 	stw	r3,16(sp)
 1003588:	00800384 	movi	r2,14
 100358c:	d8800515 	stw	r2,20(sp)
 1003590:	01002584 	movi	r4,150
 1003594:	01401904 	movi	r5,100
 1003598:	01802584 	movi	r6,150
 100359c:	01c00f04 	movi	r7,60
 10035a0:	10023f80 	call	10023f8 <buildObject>
			"Home Address: ", &(self->objects[1]), strlen("Home Address: "));

	// Phone
	buildObject(150, 150, OBJECT_WIDTH, OBJECT_HEIGHT, WHITE, WHITE, BLACK,
 10035a4:	e0bfff17 	ldw	r2,-4(fp)
 10035a8:	10800917 	ldw	r2,36(r2)
 10035ac:	10c01204 	addi	r3,r2,72
 10035b0:	00800044 	movi	r2,1
 10035b4:	d8800015 	stw	r2,0(sp)
 10035b8:	00800044 	movi	r2,1
 10035bc:	d8800115 	stw	r2,4(sp)
 10035c0:	d8000215 	stw	zero,8(sp)
 10035c4:	008040f4 	movhi	r2,259
 10035c8:	10a4b404 	addi	r2,r2,-27952
 10035cc:	d8800315 	stw	r2,12(sp)
 10035d0:	d8c00415 	stw	r3,16(sp)
 10035d4:	00800244 	movi	r2,9
 10035d8:	d8800515 	stw	r2,20(sp)
 10035dc:	01002584 	movi	r4,150
 10035e0:	01402584 	movi	r5,150
 10035e4:	01802584 	movi	r6,150
 10035e8:	01c00f04 	movi	r7,60
 10035ec:	10023f80 	call	10023f8 <buildObject>
			"Phone #: ", &(self->objects[2]), strlen("Phone #: "));

	// Emergency Contact
	buildObject(150, 200, OBJECT_WIDTH, OBJECT_HEIGHT, WHITE, WHITE, BLACK,
 10035f0:	e0bfff17 	ldw	r2,-4(fp)
 10035f4:	10800917 	ldw	r2,36(r2)
 10035f8:	10c01b04 	addi	r3,r2,108
 10035fc:	00800044 	movi	r2,1
 1003600:	d8800015 	stw	r2,0(sp)
 1003604:	00800044 	movi	r2,1
 1003608:	d8800115 	stw	r2,4(sp)
 100360c:	d8000215 	stw	zero,8(sp)
 1003610:	008040f4 	movhi	r2,259
 1003614:	10a4d104 	addi	r2,r2,-27836
 1003618:	d8800315 	stw	r2,12(sp)
 100361c:	d8c00415 	stw	r3,16(sp)
 1003620:	00800344 	movi	r2,13
 1003624:	d8800515 	stw	r2,20(sp)
 1003628:	01002584 	movi	r4,150
 100362c:	01403204 	movi	r5,200
 1003630:	01802584 	movi	r6,150
 1003634:	01c00f04 	movi	r7,60
 1003638:	10023f80 	call	10023f8 <buildObject>
			"Emergency #: ", &(self->objects[3]), strlen("Emergency #: "));

	// Current Location
	buildObject(150, 250, OBJECT_WIDTH, OBJECT_HEIGHT, WHITE, WHITE, BLACK,
 100363c:	e0bfff17 	ldw	r2,-4(fp)
 1003640:	10800917 	ldw	r2,36(r2)
 1003644:	10c02404 	addi	r3,r2,144
 1003648:	00800044 	movi	r2,1
 100364c:	d8800015 	stw	r2,0(sp)
 1003650:	00800044 	movi	r2,1
 1003654:	d8800115 	stw	r2,4(sp)
 1003658:	d8000215 	stw	zero,8(sp)
 100365c:	008040f4 	movhi	r2,259
 1003660:	10a4d504 	addi	r2,r2,-27820
 1003664:	d8800315 	stw	r2,12(sp)
 1003668:	d8c00415 	stw	r3,16(sp)
 100366c:	00800484 	movi	r2,18
 1003670:	d8800515 	stw	r2,20(sp)
 1003674:	01002584 	movi	r4,150
 1003678:	01403e84 	movi	r5,250
 100367c:	01802584 	movi	r6,150
 1003680:	01c00f04 	movi	r7,60
 1003684:	10023f80 	call	10023f8 <buildObject>
			"Your Location Is: ", &(self->objects[4]),
			strlen("Your Location Is: "));
	// Latitude
	buildObject(450, 250, OBJECT_WIDTH + 100, OBJECT_HEIGHT / 2, WHITE, WHITE,
 1003688:	e0bfff17 	ldw	r2,-4(fp)
 100368c:	10800917 	ldw	r2,36(r2)
 1003690:	10c02d04 	addi	r3,r2,180
 1003694:	00800044 	movi	r2,1
 1003698:	d8800015 	stw	r2,0(sp)
 100369c:	00800044 	movi	r2,1
 10036a0:	d8800115 	stw	r2,4(sp)
 10036a4:	d8000215 	stw	zero,8(sp)
 10036a8:	008040f4 	movhi	r2,259
 10036ac:	10a4da04 	addi	r2,r2,-27800
 10036b0:	d8800315 	stw	r2,12(sp)
 10036b4:	d8c00415 	stw	r3,16(sp)
 10036b8:	00800304 	movi	r2,12
 10036bc:	d8800515 	stw	r2,20(sp)
 10036c0:	01007084 	movi	r4,450
 10036c4:	01403e84 	movi	r5,250
 10036c8:	01803e84 	movi	r6,250
 10036cc:	01c00784 	movi	r7,30
 10036d0:	10023f80 	call	10023f8 <buildObject>
			BLACK, "------------", &(self->objects[5]), 12);
	// Longitude
	buildObject(450, 300, OBJECT_WIDTH + 100, OBJECT_HEIGHT / 2, WHITE, WHITE,
 10036d4:	e0bfff17 	ldw	r2,-4(fp)
 10036d8:	10800917 	ldw	r2,36(r2)
 10036dc:	10c03604 	addi	r3,r2,216
 10036e0:	00800044 	movi	r2,1
 10036e4:	d8800015 	stw	r2,0(sp)
 10036e8:	00800044 	movi	r2,1
 10036ec:	d8800115 	stw	r2,4(sp)
 10036f0:	d8000215 	stw	zero,8(sp)
 10036f4:	008040f4 	movhi	r2,259
 10036f8:	10a4de04 	addi	r2,r2,-27784
 10036fc:	d8800315 	stw	r2,12(sp)
 1003700:	d8c00415 	stw	r3,16(sp)
 1003704:	00800344 	movi	r2,13
 1003708:	d8800515 	stw	r2,20(sp)
 100370c:	01007084 	movi	r4,450
 1003710:	01404b04 	movi	r5,300
 1003714:	01803e84 	movi	r6,250
 1003718:	01c00784 	movi	r7,30
 100371c:	10023f80 	call	10023f8 <buildObject>
			BLACK, "-------------", &(self->objects[6]), 13);

	// Input boxes on screen from top to bottom respectively
	buildInputBox(&(self->inputBoxes[0]), 450, 50, OBJECT_WIDTH + 100,
 1003720:	e0bfff17 	ldw	r2,-4(fp)
 1003724:	11005d17 	ldw	r4,372(r2)
 1003728:	00800784 	movi	r2,30
 100372c:	d8800015 	stw	r2,0(sp)
 1003730:	00800044 	movi	r2,1
 1003734:	d8800115 	stw	r2,4(sp)
 1003738:	d8000215 	stw	zero,8(sp)
 100373c:	d8000315 	stw	zero,12(sp)
 1003740:	01407084 	movi	r5,450
 1003744:	01800c84 	movi	r6,50
 1003748:	01c03e84 	movi	r7,250
 100374c:	100a8c80 	call	100a8c8 <buildInputBox>
			OBJECT_HEIGHT / 2, WHITE, BLACK, BLACK);
	buildInputBox(&(self->inputBoxes[1]), 450, 100, OBJECT_WIDTH + 100,
 1003750:	e0bfff17 	ldw	r2,-4(fp)
 1003754:	10805d17 	ldw	r2,372(r2)
 1003758:	11004704 	addi	r4,r2,284
 100375c:	00800784 	movi	r2,30
 1003760:	d8800015 	stw	r2,0(sp)
 1003764:	00800044 	movi	r2,1
 1003768:	d8800115 	stw	r2,4(sp)
 100376c:	d8000215 	stw	zero,8(sp)
 1003770:	d8000315 	stw	zero,12(sp)
 1003774:	01407084 	movi	r5,450
 1003778:	01801904 	movi	r6,100
 100377c:	01c03e84 	movi	r7,250
 1003780:	100a8c80 	call	100a8c8 <buildInputBox>
			OBJECT_HEIGHT / 2, WHITE, BLACK, BLACK);
	buildInputBox(&(self->inputBoxes[2]), 450, 150, OBJECT_WIDTH + 100,
 1003784:	e0bfff17 	ldw	r2,-4(fp)
 1003788:	10805d17 	ldw	r2,372(r2)
 100378c:	11008e04 	addi	r4,r2,568
 1003790:	00800784 	movi	r2,30
 1003794:	d8800015 	stw	r2,0(sp)
 1003798:	00800044 	movi	r2,1
 100379c:	d8800115 	stw	r2,4(sp)
 10037a0:	d8000215 	stw	zero,8(sp)
 10037a4:	d8000315 	stw	zero,12(sp)
 10037a8:	01407084 	movi	r5,450
 10037ac:	01802584 	movi	r6,150
 10037b0:	01c03e84 	movi	r7,250
 10037b4:	100a8c80 	call	100a8c8 <buildInputBox>
			OBJECT_HEIGHT / 2, WHITE, BLACK, BLACK);
	buildInputBox(&(self->inputBoxes[3]), 450, 200, OBJECT_WIDTH + 100,
 10037b8:	e0bfff17 	ldw	r2,-4(fp)
 10037bc:	10805d17 	ldw	r2,372(r2)
 10037c0:	1100d504 	addi	r4,r2,852
 10037c4:	00800784 	movi	r2,30
 10037c8:	d8800015 	stw	r2,0(sp)
 10037cc:	00800044 	movi	r2,1
 10037d0:	d8800115 	stw	r2,4(sp)
 10037d4:	d8000215 	stw	zero,8(sp)
 10037d8:	d8000315 	stw	zero,12(sp)
 10037dc:	01407084 	movi	r5,450
 10037e0:	01803204 	movi	r6,200
 10037e4:	01c03e84 	movi	r7,250
 10037e8:	100a8c80 	call	100a8c8 <buildInputBox>
			OBJECT_HEIGHT / 2, WHITE, BLACK, BLACK);
}
 10037ec:	e037883a 	mov	sp,fp
 10037f0:	dfc00117 	ldw	ra,4(sp)
 10037f4:	df000017 	ldw	fp,0(sp)
 10037f8:	dec00204 	addi	sp,sp,8
 10037fc:	f800283a 	ret

01003800 <buildKeysPage>:

void buildKeysPage(Page *keys) {
 1003800:	deffa304 	addi	sp,sp,-372
 1003804:	dfc05c15 	stw	ra,368(sp)
 1003808:	df005b15 	stw	fp,364(sp)
 100380c:	df005b04 	addi	fp,sp,364
 1003810:	e13fac15 	stw	r4,-336(fp)

	keys->objects = malloc(sizeof(Object) * 1);
 1003814:	01000904 	movi	r4,36
 1003818:	1014b200 	call	1014b20 <malloc>
 100381c:	1007883a 	mov	r3,r2
 1003820:	e0bfac17 	ldw	r2,-336(fp)
 1003824:	10c00915 	stw	r3,36(r2)
	keys->backColour = WHITE;
 1003828:	e0ffac17 	ldw	r3,-336(fp)
 100382c:	00800044 	movi	r2,1
 1003830:	18800015 	stw	r2,0(r3)
	keys->hasKeyboard = 1; //ONLY THIS PAGE WILL HAVE THIS FLAG HIGH
 1003834:	e0ffac17 	ldw	r3,-336(fp)
 1003838:	00800044 	movi	r2,1
 100383c:	18800615 	stw	r2,24(r3)
	keys->numObjects = 1;
 1003840:	e0ffac17 	ldw	r3,-336(fp)
 1003844:	00800044 	movi	r2,1
 1003848:	18800415 	stw	r2,16(r3)
	keys->numButtons = 0;
 100384c:	e0bfac17 	ldw	r2,-336(fp)
 1003850:	10000315 	stw	zero,12(r2)
	Keyboard *kb = malloc(sizeof(Keyboard));
 1003854:	01005304 	movi	r4,332
 1003858:	1014b200 	call	1014b20 <malloc>
 100385c:	e0bfab15 	stw	r2,-340(fp)
	buildKeyboard(kb);
 1003860:	e13fad04 	addi	r4,fp,-332
 1003864:	e17fab17 	ldw	r5,-340(fp)
 1003868:	10010880 	call	1001088 <buildKeyboard>
	keys->keyboard = *kb;
 100386c:	e0bfac17 	ldw	r2,-336(fp)
 1003870:	e0ffab17 	ldw	r3,-340(fp)
 1003874:	11000a04 	addi	r4,r2,40
 1003878:	180b883a 	mov	r5,r3
 100387c:	01805304 	movi	r6,332
 1003880:	10152740 	call	1015274 <memcpy>
	keys->keyboard.isNum = 0;
 1003884:	e0bfac17 	ldw	r2,-336(fp)
 1003888:	10005015 	stw	zero,320(r2)
	keys->keyboard.isUpper = 0;
 100388c:	e0bfac17 	ldw	r2,-336(fp)
 1003890:	10004f15 	stw	zero,316(r2)
	keys->keyboard.bufCount = 0;
 1003894:	e0bfac17 	ldw	r2,-336(fp)
 1003898:	10004b15 	stw	zero,300(r2)
	keys->keyboard.currentKeyset = keys->keyboard.keyset_lowercase;
 100389c:	e0bfac17 	ldw	r2,-336(fp)
 10038a0:	10c05317 	ldw	r3,332(r2)
 10038a4:	e0bfac17 	ldw	r2,-336(fp)
 10038a8:	10c05b15 	stw	r3,364(r2)
	keys->numInputBoxes = 0;
 10038ac:	e0bfac17 	ldw	r2,-336(fp)
 10038b0:	10000215 	stw	zero,8(r2)
	keys->numSDBoxes = 0;
 10038b4:	e0bfac17 	ldw	r2,-336(fp)
 10038b8:	10000515 	stw	zero,20(r2)

	buildObject(380, 200, BUTTON_WIDTH * 4, BUTTON_HEIGHT * 2, BLACK, WHITE,
 10038bc:	e0bfac17 	ldw	r2,-336(fp)
 10038c0:	10c00917 	ldw	r3,36(r2)
 10038c4:	d8000015 	stw	zero,0(sp)
 10038c8:	00800044 	movi	r2,1
 10038cc:	d8800115 	stw	r2,4(sp)
 10038d0:	d8000215 	stw	zero,8(sp)
 10038d4:	008040f4 	movhi	r2,259
 10038d8:	10a4bd04 	addi	r2,r2,-27916
 10038dc:	d8800315 	stw	r2,12(sp)
 10038e0:	d8c00415 	stw	r3,16(sp)
 10038e4:	d8000515 	stw	zero,20(sp)
 10038e8:	01005f04 	movi	r4,380
 10038ec:	01403204 	movi	r5,200
 10038f0:	01809604 	movi	r6,600
 10038f4:	01c01904 	movi	r7,100
 10038f8:	10023f80 	call	10023f8 <buildObject>
			BLACK, "", &(keys->objects[0]), 0);

}
 10038fc:	e037883a 	mov	sp,fp
 1003900:	dfc00117 	ldw	ra,4(sp)
 1003904:	df000017 	ldw	fp,0(sp)
 1003908:	dec00204 	addi	sp,sp,8
 100390c:	f800283a 	ret

01003910 <buildMenu>:

Page* buildMenu(void) {
 1003910:	defffc04 	addi	sp,sp,-16
 1003914:	dfc00315 	stw	ra,12(sp)
 1003918:	df000215 	stw	fp,8(sp)
 100391c:	df000204 	addi	fp,sp,8

	// Build/allocate pages
	home = malloc(sizeof(Page));
 1003920:	01005f04 	movi	r4,380
 1003924:	1014b200 	call	1014b20 <malloc>
 1003928:	d0a71115 	stw	r2,-25532(gp)
	password = malloc(sizeof(Page));
 100392c:	01005f04 	movi	r4,380
 1003930:	1014b200 	call	1014b20 <malloc>
 1003934:	d0a70415 	stw	r2,-25584(gp)
	passwordSetup = malloc(sizeof(Page));
 1003938:	01005f04 	movi	r4,380
 100393c:	1014b200 	call	1014b20 <malloc>
 1003940:	d0a70815 	stw	r2,-25568(gp)
	destination = malloc(sizeof(Page));
 1003944:	01005f04 	movi	r4,380
 1003948:	1014b200 	call	1014b20 <malloc>
 100394c:	d0a70715 	stw	r2,-25572(gp)
	self = malloc(sizeof(Page));
 1003950:	01005f04 	movi	r4,380
 1003954:	1014b200 	call	1014b20 <malloc>
 1003958:	d0a70515 	stw	r2,-25580(gp)
	keys = malloc(sizeof(Page));
 100395c:	01005f04 	movi	r4,380
 1003960:	1014b200 	call	1014b20 <malloc>
 1003964:	d0a71315 	stw	r2,-25524(gp)
	map = malloc(sizeof(Page));
 1003968:	01005f04 	movi	r4,380
 100396c:	1014b200 	call	1014b20 <malloc>
 1003970:	d0a70615 	stw	r2,-25576(gp)
	panic = malloc(sizeof(Page));
 1003974:	01005f04 	movi	r4,380
 1003978:	1014b200 	call	1014b20 <malloc>
 100397c:	d0a70e15 	stw	r2,-25544(gp)
	loggingSettings = malloc(sizeof(Page));
 1003980:	01005f04 	movi	r4,380
 1003984:	1014b200 	call	1014b20 <malloc>
 1003988:	d0a70d15 	stw	r2,-25548(gp)
	addresses = malloc(sizeof(Page));
 100398c:	01005f04 	movi	r4,380
 1003990:	1014b200 	call	1014b20 <malloc>
 1003994:	d0a70c15 	stw	r2,-25552(gp)

	home->hasKeyboard = 0;
 1003998:	d0a71117 	ldw	r2,-25532(gp)
 100399c:	10000615 	stw	zero,24(r2)
	destination->hasKeyboard = 0;
 10039a0:	d0a70717 	ldw	r2,-25572(gp)
 10039a4:	10000615 	stw	zero,24(r2)
	password->hasKeyboard = 0;
 10039a8:	d0a70417 	ldw	r2,-25584(gp)
 10039ac:	10000615 	stw	zero,24(r2)
	passwordSetup->hasKeyboard = 0;
 10039b0:	d0a70817 	ldw	r2,-25568(gp)
 10039b4:	10000615 	stw	zero,24(r2)
	self->hasKeyboard = 0;
 10039b8:	d0a70517 	ldw	r2,-25580(gp)
 10039bc:	10000615 	stw	zero,24(r2)
	keys->hasKeyboard = 1;
 10039c0:	d0e71317 	ldw	r3,-25524(gp)
 10039c4:	00800044 	movi	r2,1
 10039c8:	18800615 	stw	r2,24(r3)
	map->hasKeyboard = 0;
 10039cc:	d0a70617 	ldw	r2,-25576(gp)
 10039d0:	10000615 	stw	zero,24(r2)
	loggingSettings->hasKeyboard = 0;
 10039d4:	d0a70d17 	ldw	r2,-25548(gp)
 10039d8:	10000615 	stw	zero,24(r2)
	panic->hasKeyboard = 0;
 10039dc:	d0a70e17 	ldw	r2,-25544(gp)
 10039e0:	10000615 	stw	zero,24(r2)
	addresses->hasKeyboard = 0;
 10039e4:	d0a70c17 	ldw	r2,-25552(gp)
 10039e8:	10000615 	stw	zero,24(r2)

	buildHomePage(home);
 10039ec:	d1271117 	ldw	r4,-25532(gp)
 10039f0:	10024f00 	call	10024f0 <buildHomePage>
	buildDestPage(destination);
 10039f4:	d1270717 	ldw	r4,-25572(gp)
 10039f8:	10028300 	call	1002830 <buildDestPage>
	buildSelfPage(self);
 10039fc:	d1270517 	ldw	r4,-25580(gp)
 1003a00:	10033080 	call	1003308 <buildSelfPage>
	buildKeysPage(keys);
 1003a04:	d1271317 	ldw	r4,-25524(gp)
 1003a08:	10038000 	call	1003800 <buildKeysPage>
	buildMapPage(map);
 1003a0c:	d1270617 	ldw	r4,-25576(gp)
 1003a10:	1002c4c0 	call	1002c4c <buildMapPage>
	buildPWLoginPage(password);
 1003a14:	d1270417 	ldw	r4,-25584(gp)
 1003a18:	1003ab80 	call	1003ab8 <buildPWLoginPage>
	buildPWSetupPage(passwordSetup);
 1003a1c:	d1270817 	ldw	r4,-25568(gp)
 1003a20:	1003c140 	call	1003c14 <buildPWSetupPage>
	buildLoggingSettingsPage(loggingSettings);
 1003a24:	d1270d17 	ldw	r4,-25548(gp)
 1003a28:	1003dec0 	call	1003dec <buildLoggingSettingsPage>
	buildPanicPage(panic);
 1003a2c:	d1270e17 	ldw	r4,-25544(gp)
 1003a30:	10040340 	call	1004034 <buildPanicPage>
	buildAddressesPage(addresses);
 1003a34:	d1270c17 	ldw	r4,-25552(gp)
 1003a38:	10042540 	call	1004254 <buildAddressesPage>

	char buf[2] = "";
 1003a3c:	008040f4 	movhi	r2,259
 1003a40:	10a4ea04 	addi	r2,r2,-27736
 1003a44:	10800003 	ldbu	r2,0(r2)
 1003a48:	e0bffe05 	stb	r2,-8(fp)
 1003a4c:	e03ffe45 	stb	zero,-7(fp)

	readFromSD(buf, "passMode.txt", 1);
 1003a50:	e13ffe04 	addi	r4,fp,-8
 1003a54:	014040f4 	movhi	r5,259
 1003a58:	2964e204 	addi	r5,r5,-27768
 1003a5c:	01800044 	movi	r6,1
 1003a60:	100ae780 	call	100ae78 <readFromSD>
	printf("enable: %s\n", buf);
 1003a64:	010040f4 	movhi	r4,259
 1003a68:	2124e604 	addi	r4,r4,-27752
 1003a6c:	e17ffe04 	addi	r5,fp,-8
 1003a70:	10155040 	call	1015504 <printf>

	if (strcmp(buf, "E") == 0) {
 1003a74:	e13ffe04 	addi	r4,fp,-8
 1003a78:	014040f4 	movhi	r5,259
 1003a7c:	2964e904 	addi	r5,r5,-27740
 1003a80:	1015bb40 	call	1015bb4 <strcmp>
 1003a84:	1004c03a 	cmpne	r2,r2,zero
 1003a88:	1000031e 	bne	r2,zero,1003a98 <buildMenu+0x188>
		return password;
 1003a8c:	d0a70417 	ldw	r2,-25584(gp)
 1003a90:	e0bfff15 	stw	r2,-4(fp)
 1003a94:	00000206 	br	1003aa0 <buildMenu+0x190>
	}

	return home;
 1003a98:	d0a71117 	ldw	r2,-25532(gp)
 1003a9c:	e0bfff15 	stw	r2,-4(fp)
 1003aa0:	e0bfff17 	ldw	r2,-4(fp)

}
 1003aa4:	e037883a 	mov	sp,fp
 1003aa8:	dfc00117 	ldw	ra,4(sp)
 1003aac:	df000017 	ldw	fp,0(sp)
 1003ab0:	dec00204 	addi	sp,sp,8
 1003ab4:	f800283a 	ret

01003ab8 <buildPWLoginPage>:

void buildPWLoginPage(Page *password) {
 1003ab8:	defff604 	addi	sp,sp,-40
 1003abc:	dfc00915 	stw	ra,36(sp)
 1003ac0:	df000815 	stw	fp,32(sp)
 1003ac4:	df000804 	addi	fp,sp,32
 1003ac8:	e13fff15 	stw	r4,-4(fp)

	password->buttons = malloc(sizeof(Button) * 1);
 1003acc:	01000a04 	movi	r4,40
 1003ad0:	1014b200 	call	1014b20 <malloc>
 1003ad4:	1007883a 	mov	r3,r2
 1003ad8:	e0bfff17 	ldw	r2,-4(fp)
 1003adc:	10c00815 	stw	r3,32(r2)
	password->objects = malloc(sizeof(Object) * 1);
 1003ae0:	01000904 	movi	r4,36
 1003ae4:	1014b200 	call	1014b20 <malloc>
 1003ae8:	1007883a 	mov	r3,r2
 1003aec:	e0bfff17 	ldw	r2,-4(fp)
 1003af0:	10c00915 	stw	r3,36(r2)
	password->inputBoxes = malloc(sizeof(InputBox) * 1);
 1003af4:	01004704 	movi	r4,284
 1003af8:	1014b200 	call	1014b20 <malloc>
 1003afc:	1007883a 	mov	r3,r2
 1003b00:	e0bfff17 	ldw	r2,-4(fp)
 1003b04:	10c05d15 	stw	r3,372(r2)
	password->backColour = WHITE;
 1003b08:	e0ffff17 	ldw	r3,-4(fp)
 1003b0c:	00800044 	movi	r2,1
 1003b10:	18800015 	stw	r2,0(r3)
	password->numObjects = 1;
 1003b14:	e0ffff17 	ldw	r3,-4(fp)
 1003b18:	00800044 	movi	r2,1
 1003b1c:	18800415 	stw	r2,16(r3)
	password->numButtons = 1;
 1003b20:	e0ffff17 	ldw	r3,-4(fp)
 1003b24:	00800044 	movi	r2,1
 1003b28:	18800315 	stw	r2,12(r3)
	password->numInputBoxes = 1;
 1003b2c:	e0ffff17 	ldw	r3,-4(fp)
 1003b30:	00800044 	movi	r2,1
 1003b34:	18800215 	stw	r2,8(r3)
	password->numSDBoxes = 0;
 1003b38:	e0bfff17 	ldw	r2,-4(fp)
 1003b3c:	10000515 	stw	zero,20(r2)

	// Enter Button
	buildButton(400, 400, BUTTON_WIDTH, BUTTON_HEIGHT, BLACK, AQUA, BLACK,
 1003b40:	e0bfff17 	ldw	r2,-4(fp)
 1003b44:	10c00817 	ldw	r3,32(r2)
 1003b48:	d1271117 	ldw	r4,-25532(gp)
 1003b4c:	d8000015 	stw	zero,0(sp)
 1003b50:	00800f44 	movi	r2,61
 1003b54:	d8800115 	stw	r2,4(sp)
 1003b58:	d8000215 	stw	zero,8(sp)
 1003b5c:	008040f4 	movhi	r2,259
 1003b60:	10a4eb04 	addi	r2,r2,-27732
 1003b64:	d8800315 	stw	r2,12(sp)
 1003b68:	d8c00415 	stw	r3,16(sp)
 1003b6c:	00800144 	movi	r2,5
 1003b70:	d8800515 	stw	r2,20(sp)
 1003b74:	d9000615 	stw	r4,24(sp)
 1003b78:	01006404 	movi	r4,400
 1003b7c:	01406404 	movi	r5,400
 1003b80:	01802584 	movi	r6,150
 1003b84:	01c00c84 	movi	r7,50
 1003b88:	1000e8c0 	call	1000e8c <buildButton>
			"Enter", &(password->buttons[0]), strlen("Enter"), home);

	// Incorrect Password Message
	buildObject(400, 100, BUTTON_WIDTH * 3, BUTTON_HEIGHT, BLACK, GOLD, BLACK,
 1003b8c:	e0bfff17 	ldw	r2,-4(fp)
 1003b90:	10c00917 	ldw	r3,36(r2)
 1003b94:	d8000015 	stw	zero,0(sp)
 1003b98:	00800784 	movi	r2,30
 1003b9c:	d8800115 	stw	r2,4(sp)
 1003ba0:	d8000215 	stw	zero,8(sp)
 1003ba4:	008040f4 	movhi	r2,259
 1003ba8:	10a4ed04 	addi	r2,r2,-27724
 1003bac:	d8800315 	stw	r2,12(sp)
 1003bb0:	d8c00415 	stw	r3,16(sp)
 1003bb4:	00800684 	movi	r2,26
 1003bb8:	d8800515 	stw	r2,20(sp)
 1003bbc:	01006404 	movi	r4,400
 1003bc0:	01401904 	movi	r5,100
 1003bc4:	01807084 	movi	r6,450
 1003bc8:	01c00c84 	movi	r7,50
 1003bcc:	10023f80 	call	10023f8 <buildObject>
			"Please Enter Your Password", &(password->objects[0]),
			strlen("Please Enter Your Password"));

	// Input Box
	buildInputBox(&(password->inputBoxes[0]), 380, 200, BUTTON_WIDTH * 4,
 1003bd0:	e0bfff17 	ldw	r2,-4(fp)
 1003bd4:	11005d17 	ldw	r4,372(r2)
 1003bd8:	00801904 	movi	r2,100
 1003bdc:	d8800015 	stw	r2,0(sp)
 1003be0:	00800784 	movi	r2,30
 1003be4:	d8800115 	stw	r2,4(sp)
 1003be8:	d8000215 	stw	zero,8(sp)
 1003bec:	d8000315 	stw	zero,12(sp)
 1003bf0:	01405f04 	movi	r5,380
 1003bf4:	01803204 	movi	r6,200
 1003bf8:	01c09604 	movi	r7,600
 1003bfc:	100a8c80 	call	100a8c8 <buildInputBox>
			BUTTON_HEIGHT * 2, GOLD, BLACK, BLACK);

}
 1003c00:	e037883a 	mov	sp,fp
 1003c04:	dfc00117 	ldw	ra,4(sp)
 1003c08:	df000017 	ldw	fp,0(sp)
 1003c0c:	dec00204 	addi	sp,sp,8
 1003c10:	f800283a 	ret

01003c14 <buildPWSetupPage>:

void buildPWSetupPage(Page *passwordSetup) {
 1003c14:	defff604 	addi	sp,sp,-40
 1003c18:	dfc00915 	stw	ra,36(sp)
 1003c1c:	df000815 	stw	fp,32(sp)
 1003c20:	df000804 	addi	fp,sp,32
 1003c24:	e13fff15 	stw	r4,-4(fp)

	passwordSetup->buttons = malloc(sizeof(Button) * 3);
 1003c28:	01001e04 	movi	r4,120
 1003c2c:	1014b200 	call	1014b20 <malloc>
 1003c30:	1007883a 	mov	r3,r2
 1003c34:	e0bfff17 	ldw	r2,-4(fp)
 1003c38:	10c00815 	stw	r3,32(r2)
	passwordSetup->inputBoxes = malloc(sizeof(InputBox) * 1);
 1003c3c:	01004704 	movi	r4,284
 1003c40:	1014b200 	call	1014b20 <malloc>
 1003c44:	1007883a 	mov	r3,r2
 1003c48:	e0bfff17 	ldw	r2,-4(fp)
 1003c4c:	10c05d15 	stw	r3,372(r2)
	passwordSetup->backColour = WHITE;
 1003c50:	e0ffff17 	ldw	r3,-4(fp)
 1003c54:	00800044 	movi	r2,1
 1003c58:	18800015 	stw	r2,0(r3)
	passwordSetup->numObjects = 0;
 1003c5c:	e0bfff17 	ldw	r2,-4(fp)
 1003c60:	10000415 	stw	zero,16(r2)
	passwordSetup->numButtons = 1;
 1003c64:	e0ffff17 	ldw	r3,-4(fp)
 1003c68:	00800044 	movi	r2,1
 1003c6c:	18800315 	stw	r2,12(r3)
	passwordSetup->numInputBoxes = 1;
 1003c70:	e0ffff17 	ldw	r3,-4(fp)
 1003c74:	00800044 	movi	r2,1
 1003c78:	18800215 	stw	r2,8(r3)
	passwordSetup->numSDBoxes = 3;
 1003c7c:	e0ffff17 	ldw	r3,-4(fp)
 1003c80:	008000c4 	movi	r2,3
 1003c84:	18800515 	stw	r2,20(r3)

	// Home button
	buildButton(100, 50, BUTTON_WIDTH, BUTTON_HEIGHT, BLACK, AQUA, BLACK,
 1003c88:	e0bfff17 	ldw	r2,-4(fp)
 1003c8c:	10c00817 	ldw	r3,32(r2)
 1003c90:	d1271117 	ldw	r4,-25532(gp)
 1003c94:	d8000015 	stw	zero,0(sp)
 1003c98:	00800f44 	movi	r2,61
 1003c9c:	d8800115 	stw	r2,4(sp)
 1003ca0:	d8000215 	stw	zero,8(sp)
 1003ca4:	008040f4 	movhi	r2,259
 1003ca8:	10a49a04 	addi	r2,r2,-28056
 1003cac:	d8800315 	stw	r2,12(sp)
 1003cb0:	d8c00415 	stw	r3,16(sp)
 1003cb4:	00800104 	movi	r2,4
 1003cb8:	d8800515 	stw	r2,20(sp)
 1003cbc:	d9000615 	stw	r4,24(sp)
 1003cc0:	01001904 	movi	r4,100
 1003cc4:	01400c84 	movi	r5,50
 1003cc8:	01802584 	movi	r6,150
 1003ccc:	01c00c84 	movi	r7,50
 1003cd0:	1000e8c0 	call	1000e8c <buildButton>
			"Home", &(passwordSetup->buttons[0]), strlen("Home"), home);

	buildSDBox(600, 400, BUTTON_WIDTH, BUTTON_HEIGHT, BLACK, AQUA, BLACK,
 1003cd4:	e0bfff17 	ldw	r2,-4(fp)
 1003cd8:	10c05e17 	ldw	r3,376(r2)
 1003cdc:	d8000015 	stw	zero,0(sp)
 1003ce0:	00800f44 	movi	r2,61
 1003ce4:	d8800115 	stw	r2,4(sp)
 1003ce8:	d8000215 	stw	zero,8(sp)
 1003cec:	008040f4 	movhi	r2,259
 1003cf0:	10a4f404 	addi	r2,r2,-27696
 1003cf4:	d8800315 	stw	r2,12(sp)
 1003cf8:	d8c00415 	stw	r3,16(sp)
 1003cfc:	00800244 	movi	r2,9
 1003d00:	d8800515 	stw	r2,20(sp)
 1003d04:	01009604 	movi	r4,600
 1003d08:	01406404 	movi	r5,400
 1003d0c:	01802584 	movi	r6,150
 1003d10:	01c00c84 	movi	r7,50
 1003d14:	100aafc0 	call	100aafc <buildSDBox>
			"Change PW", &(passwordSetup->sdBoxes[0]), strlen("Change PW"));

	buildSDBox(200, 400, BUTTON_WIDTH, BUTTON_HEIGHT, BLACK, AQUA, BLACK,
 1003d18:	e0bfff17 	ldw	r2,-4(fp)
 1003d1c:	10805e17 	ldw	r2,376(r2)
 1003d20:	10c00904 	addi	r3,r2,36
 1003d24:	d8000015 	stw	zero,0(sp)
 1003d28:	00800f44 	movi	r2,61
 1003d2c:	d8800115 	stw	r2,4(sp)
 1003d30:	d8000215 	stw	zero,8(sp)
 1003d34:	008040f4 	movhi	r2,259
 1003d38:	10a4f704 	addi	r2,r2,-27684
 1003d3c:	d8800315 	stw	r2,12(sp)
 1003d40:	d8c00415 	stw	r3,16(sp)
 1003d44:	00800184 	movi	r2,6
 1003d48:	d8800515 	stw	r2,20(sp)
 1003d4c:	01003204 	movi	r4,200
 1003d50:	01406404 	movi	r5,400
 1003d54:	01802584 	movi	r6,150
 1003d58:	01c00c84 	movi	r7,50
 1003d5c:	100aafc0 	call	100aafc <buildSDBox>
			"Enable", &(passwordSetup->sdBoxes[1]), strlen("Enable"));

	buildSDBox(400, 400, BUTTON_WIDTH, BUTTON_HEIGHT, BLACK, RED, BLACK,
 1003d60:	e0bfff17 	ldw	r2,-4(fp)
 1003d64:	10805e17 	ldw	r2,376(r2)
 1003d68:	10c01204 	addi	r3,r2,72
 1003d6c:	d8000015 	stw	zero,0(sp)
 1003d70:	00800084 	movi	r2,2
 1003d74:	d8800115 	stw	r2,4(sp)
 1003d78:	d8000215 	stw	zero,8(sp)
 1003d7c:	008040f4 	movhi	r2,259
 1003d80:	10a4f904 	addi	r2,r2,-27676
 1003d84:	d8800315 	stw	r2,12(sp)
 1003d88:	d8c00415 	stw	r3,16(sp)
 1003d8c:	008001c4 	movi	r2,7
 1003d90:	d8800515 	stw	r2,20(sp)
 1003d94:	01006404 	movi	r4,400
 1003d98:	01406404 	movi	r5,400
 1003d9c:	01802584 	movi	r6,150
 1003da0:	01c00c84 	movi	r7,50
 1003da4:	100aafc0 	call	100aafc <buildSDBox>
			"Disable", &(passwordSetup->sdBoxes[2]), strlen("Disable"));

	buildInputBox(&(passwordSetup->inputBoxes[0]), 380, 200, BUTTON_WIDTH * 4,
 1003da8:	e0bfff17 	ldw	r2,-4(fp)
 1003dac:	11005d17 	ldw	r4,372(r2)
 1003db0:	00801904 	movi	r2,100
 1003db4:	d8800015 	stw	r2,0(sp)
 1003db8:	00800044 	movi	r2,1
 1003dbc:	d8800115 	stw	r2,4(sp)
 1003dc0:	d8000215 	stw	zero,8(sp)
 1003dc4:	d8000315 	stw	zero,12(sp)
 1003dc8:	01405f04 	movi	r5,380
 1003dcc:	01803204 	movi	r6,200
 1003dd0:	01c09604 	movi	r7,600
 1003dd4:	100a8c80 	call	100a8c8 <buildInputBox>
			BUTTON_HEIGHT * 2, WHITE, BLACK, BLACK);

}
 1003dd8:	e037883a 	mov	sp,fp
 1003ddc:	dfc00117 	ldw	ra,4(sp)
 1003de0:	df000017 	ldw	fp,0(sp)
 1003de4:	dec00204 	addi	sp,sp,8
 1003de8:	f800283a 	ret

01003dec <buildLoggingSettingsPage>:

void buildLoggingSettingsPage(Page * loggingSettings) {
 1003dec:	defff604 	addi	sp,sp,-40
 1003df0:	dfc00915 	stw	ra,36(sp)
 1003df4:	df000815 	stw	fp,32(sp)
 1003df8:	df000804 	addi	fp,sp,32
 1003dfc:	e13fff15 	stw	r4,-4(fp)

	loggingSettings->buttons = malloc(sizeof(Button) * 1);
 1003e00:	01000a04 	movi	r4,40
 1003e04:	1014b200 	call	1014b20 <malloc>
 1003e08:	1007883a 	mov	r3,r2
 1003e0c:	e0bfff17 	ldw	r2,-4(fp)
 1003e10:	10c00815 	stw	r3,32(r2)
	loggingSettings->objects = malloc(sizeof(Object) * 1);
 1003e14:	01000904 	movi	r4,36
 1003e18:	1014b200 	call	1014b20 <malloc>
 1003e1c:	1007883a 	mov	r3,r2
 1003e20:	e0bfff17 	ldw	r2,-4(fp)
 1003e24:	10c00915 	stw	r3,36(r2)
	loggingSettings->inputBoxes = malloc(sizeof(InputBox) * 1);
 1003e28:	01004704 	movi	r4,284
 1003e2c:	1014b200 	call	1014b20 <malloc>
 1003e30:	1007883a 	mov	r3,r2
 1003e34:	e0bfff17 	ldw	r2,-4(fp)
 1003e38:	10c05d15 	stw	r3,372(r2)
	loggingSettings->sdBoxes = malloc(sizeof(SDBox) * 3);
 1003e3c:	01001b04 	movi	r4,108
 1003e40:	1014b200 	call	1014b20 <malloc>
 1003e44:	1007883a 	mov	r3,r2
 1003e48:	e0bfff17 	ldw	r2,-4(fp)
 1003e4c:	10c05e15 	stw	r3,376(r2)
	loggingSettings->numButtons = 1;
 1003e50:	e0ffff17 	ldw	r3,-4(fp)
 1003e54:	00800044 	movi	r2,1
 1003e58:	18800315 	stw	r2,12(r3)
	loggingSettings->numObjects = 1;
 1003e5c:	e0ffff17 	ldw	r3,-4(fp)
 1003e60:	00800044 	movi	r2,1
 1003e64:	18800415 	stw	r2,16(r3)
	loggingSettings->backColour = WHITE;
 1003e68:	e0ffff17 	ldw	r3,-4(fp)
 1003e6c:	00800044 	movi	r2,1
 1003e70:	18800015 	stw	r2,0(r3)
	loggingSettings->numInputBoxes = 1;
 1003e74:	e0ffff17 	ldw	r3,-4(fp)
 1003e78:	00800044 	movi	r2,1
 1003e7c:	18800215 	stw	r2,8(r3)
	loggingSettings->numSDBoxes = 3;
 1003e80:	e0ffff17 	ldw	r3,-4(fp)
 1003e84:	008000c4 	movi	r2,3
 1003e88:	18800515 	stw	r2,20(r3)

	buildButton(160, 400, BUTTON_WIDTH, BUTTON_HEIGHT, BLACK, AQUA, BLACK,
 1003e8c:	e0bfff17 	ldw	r2,-4(fp)
 1003e90:	10c00817 	ldw	r3,32(r2)
 1003e94:	d1271117 	ldw	r4,-25532(gp)
 1003e98:	d8000015 	stw	zero,0(sp)
 1003e9c:	00800f44 	movi	r2,61
 1003ea0:	d8800115 	stw	r2,4(sp)
 1003ea4:	d8000215 	stw	zero,8(sp)
 1003ea8:	008040f4 	movhi	r2,259
 1003eac:	10a49a04 	addi	r2,r2,-28056
 1003eb0:	d8800315 	stw	r2,12(sp)
 1003eb4:	d8c00415 	stw	r3,16(sp)
 1003eb8:	00800104 	movi	r2,4
 1003ebc:	d8800515 	stw	r2,20(sp)
 1003ec0:	d9000615 	stw	r4,24(sp)
 1003ec4:	01002804 	movi	r4,160
 1003ec8:	01406404 	movi	r5,400
 1003ecc:	01802584 	movi	r6,150
 1003ed0:	01c00c84 	movi	r7,50
 1003ed4:	1000e8c0 	call	1000e8c <buildButton>
			"Home", &(loggingSettings->buttons[0]), strlen("Home"), home);

	buildObject(380 + 15, 150, BUTTON_WIDTH * 3 + 30, BUTTON_HEIGHT, BLACK,
 1003ed8:	e0bfff17 	ldw	r2,-4(fp)
 1003edc:	10c00917 	ldw	r3,36(r2)
 1003ee0:	d8000015 	stw	zero,0(sp)
 1003ee4:	00800f44 	movi	r2,61
 1003ee8:	d8800115 	stw	r2,4(sp)
 1003eec:	d8000215 	stw	zero,8(sp)
 1003ef0:	008040f4 	movhi	r2,259
 1003ef4:	10a4fb04 	addi	r2,r2,-27668
 1003ef8:	d8800315 	stw	r2,12(sp)
 1003efc:	d8c00415 	stw	r3,16(sp)
 1003f00:	00800884 	movi	r2,34
 1003f04:	d8800515 	stw	r2,20(sp)
 1003f08:	010062c4 	movi	r4,395
 1003f0c:	01402584 	movi	r5,150
 1003f10:	01807804 	movi	r6,480
 1003f14:	01c00c84 	movi	r7,50
 1003f18:	10023f80 	call	10023f8 <buildObject>
			AQUA, BLACK, "Please Set Fence Radius In Metres:",
			&(loggingSettings->objects[0]),
			strlen("Please Set Fence Radius In Metres:"));

	buildInputBox(&(loggingSettings->inputBoxes[0]), 380, 200, BUTTON_WIDTH * 3,
 1003f1c:	e0bfff17 	ldw	r2,-4(fp)
 1003f20:	11005d17 	ldw	r4,372(r2)
 1003f24:	00800c84 	movi	r2,50
 1003f28:	d8800015 	stw	r2,0(sp)
 1003f2c:	00800044 	movi	r2,1
 1003f30:	d8800115 	stw	r2,4(sp)
 1003f34:	d8000215 	stw	zero,8(sp)
 1003f38:	d8000315 	stw	zero,12(sp)
 1003f3c:	01405f04 	movi	r5,380
 1003f40:	01803204 	movi	r6,200
 1003f44:	01c07084 	movi	r7,450
 1003f48:	100a8c80 	call	100a8c8 <buildInputBox>
			BUTTON_HEIGHT, WHITE, BLACK, BLACK);

	buildSDBox(320, 400, BUTTON_WIDTH, BUTTON_HEIGHT, BLACK, AQUA, BLACK,
 1003f4c:	e0bfff17 	ldw	r2,-4(fp)
 1003f50:	10c05e17 	ldw	r3,376(r2)
 1003f54:	d8000015 	stw	zero,0(sp)
 1003f58:	00800f44 	movi	r2,61
 1003f5c:	d8800115 	stw	r2,4(sp)
 1003f60:	d8000215 	stw	zero,8(sp)
 1003f64:	008040f4 	movhi	r2,259
 1003f68:	10a50404 	addi	r2,r2,-27632
 1003f6c:	d8800315 	stw	r2,12(sp)
 1003f70:	d8c00415 	stw	r3,16(sp)
 1003f74:	00800384 	movi	r2,14
 1003f78:	d8800515 	stw	r2,20(sp)
 1003f7c:	01005004 	movi	r4,320
 1003f80:	01406404 	movi	r5,400
 1003f84:	01802584 	movi	r6,150
 1003f88:	01c00c84 	movi	r7,50
 1003f8c:	100aafc0 	call	100aafc <buildSDBox>
			"Enable Logging", &(loggingSettings->sdBoxes[0]),
			strlen("Enable Logging"));

	buildSDBox(480, 400, BUTTON_WIDTH, BUTTON_HEIGHT, BLACK, RED, BLACK,
 1003f90:	e0bfff17 	ldw	r2,-4(fp)
 1003f94:	10805e17 	ldw	r2,376(r2)
 1003f98:	10c00904 	addi	r3,r2,36
 1003f9c:	d8000015 	stw	zero,0(sp)
 1003fa0:	00800084 	movi	r2,2
 1003fa4:	d8800115 	stw	r2,4(sp)
 1003fa8:	d8000215 	stw	zero,8(sp)
 1003fac:	008040f4 	movhi	r2,259
 1003fb0:	10a50804 	addi	r2,r2,-27616
 1003fb4:	d8800315 	stw	r2,12(sp)
 1003fb8:	d8c00415 	stw	r3,16(sp)
 1003fbc:	008003c4 	movi	r2,15
 1003fc0:	d8800515 	stw	r2,20(sp)
 1003fc4:	01007804 	movi	r4,480
 1003fc8:	01406404 	movi	r5,400
 1003fcc:	01802584 	movi	r6,150
 1003fd0:	01c00c84 	movi	r7,50
 1003fd4:	100aafc0 	call	100aafc <buildSDBox>
			"Disable Logging", &(loggingSettings->sdBoxes[1]),
			strlen("Disable Logging"));

	buildSDBox(640, 400, BUTTON_WIDTH, BUTTON_HEIGHT, BLACK, LIME_GREEN, BLACK,
 1003fd8:	e0bfff17 	ldw	r2,-4(fp)
 1003fdc:	10805e17 	ldw	r2,376(r2)
 1003fe0:	10c01204 	addi	r3,r2,72
 1003fe4:	d8000015 	stw	zero,0(sp)
 1003fe8:	00800c04 	movi	r2,48
 1003fec:	d8800115 	stw	r2,4(sp)
 1003ff0:	d8000215 	stw	zero,8(sp)
 1003ff4:	008040f4 	movhi	r2,259
 1003ff8:	10a50c04 	addi	r2,r2,-27600
 1003ffc:	d8800315 	stw	r2,12(sp)
 1004000:	d8c00415 	stw	r3,16(sp)
 1004004:	00800344 	movi	r2,13
 1004008:	d8800515 	stw	r2,20(sp)
 100400c:	0100a004 	movi	r4,640
 1004010:	01406404 	movi	r5,400
 1004014:	01802584 	movi	r6,150
 1004018:	01c00c84 	movi	r7,50
 100401c:	100aafc0 	call	100aafc <buildSDBox>
			"Save Distance", &(loggingSettings->sdBoxes[2]),
			strlen("Save Distance"));
}
 1004020:	e037883a 	mov	sp,fp
 1004024:	dfc00117 	ldw	ra,4(sp)
 1004028:	df000017 	ldw	fp,0(sp)
 100402c:	dec00204 	addi	sp,sp,8
 1004030:	f800283a 	ret

01004034 <buildPanicPage>:

void buildPanicPage(Page *panicPage) {
 1004034:	defff604 	addi	sp,sp,-40
 1004038:	dfc00915 	stw	ra,36(sp)
 100403c:	df000815 	stw	fp,32(sp)
 1004040:	df000804 	addi	fp,sp,32
 1004044:	e13fff15 	stw	r4,-4(fp)
	panicPage->buttons = malloc(sizeof(Button) * 4);
 1004048:	01002804 	movi	r4,160
 100404c:	1014b200 	call	1014b20 <malloc>
 1004050:	1007883a 	mov	r3,r2
 1004054:	e0bfff17 	ldw	r2,-4(fp)
 1004058:	10c00815 	stw	r3,32(r2)
	panicPage->objects = malloc(sizeof(Object) * 1);
 100405c:	01000904 	movi	r4,36
 1004060:	1014b200 	call	1014b20 <malloc>
 1004064:	1007883a 	mov	r3,r2
 1004068:	e0bfff17 	ldw	r2,-4(fp)
 100406c:	10c00915 	stw	r3,36(r2)
	panicPage->numButtons = 4;
 1004070:	e0ffff17 	ldw	r3,-4(fp)
 1004074:	00800104 	movi	r2,4
 1004078:	18800315 	stw	r2,12(r3)
	panicPage->numObjects = 1;
 100407c:	e0ffff17 	ldw	r3,-4(fp)
 1004080:	00800044 	movi	r2,1
 1004084:	18800415 	stw	r2,16(r3)
	panicPage->backColour = BLACK;
 1004088:	e0bfff17 	ldw	r2,-4(fp)
 100408c:	10000015 	stw	zero,0(r2)
	panicPage->numInputBoxes = 0;
 1004090:	e0bfff17 	ldw	r2,-4(fp)
 1004094:	10000215 	stw	zero,8(r2)
	panicPage->numSDBoxes = 0;
 1004098:	e0bfff17 	ldw	r2,-4(fp)
 100409c:	10000515 	stw	zero,20(r2)

	buildButton(700, 420, BUTTON_WIDTH, BUTTON_HEIGHT, BLACK, AQUA, BLACK,
 10040a0:	e0bfff17 	ldw	r2,-4(fp)
 10040a4:	10c00817 	ldw	r3,32(r2)
 10040a8:	d1271117 	ldw	r4,-25532(gp)
 10040ac:	d8000015 	stw	zero,0(sp)
 10040b0:	00800f44 	movi	r2,61
 10040b4:	d8800115 	stw	r2,4(sp)
 10040b8:	d8000215 	stw	zero,8(sp)
 10040bc:	008040f4 	movhi	r2,259
 10040c0:	10a4b904 	addi	r2,r2,-27932
 10040c4:	d8800315 	stw	r2,12(sp)
 10040c8:	d8c00415 	stw	r3,16(sp)
 10040cc:	00800104 	movi	r2,4
 10040d0:	d8800515 	stw	r2,20(sp)
 10040d4:	d9000615 	stw	r4,24(sp)
 10040d8:	0100af04 	movi	r4,700
 10040dc:	01406904 	movi	r5,420
 10040e0:	01802584 	movi	r6,150
 10040e4:	01c00c84 	movi	r7,50
 10040e8:	1000e8c0 	call	1000e8c <buildButton>
			"Menu", &(panicPage->buttons[0]), strlen("Menu"), home);
	buildButton(200, 300, BUTTON_WIDTH, BUTTON_HEIGHT, BLACK, AQUA, BLACK,
 10040ec:	e0bfff17 	ldw	r2,-4(fp)
 10040f0:	10800817 	ldw	r2,32(r2)
 10040f4:	10c00a04 	addi	r3,r2,40
 10040f8:	d1270617 	ldw	r4,-25576(gp)
 10040fc:	d8000015 	stw	zero,0(sp)
 1004100:	00800f44 	movi	r2,61
 1004104:	d8800115 	stw	r2,4(sp)
 1004108:	d8000215 	stw	zero,8(sp)
 100410c:	008040f4 	movhi	r2,259
 1004110:	10a48304 	addi	r2,r2,-28148
 1004114:	d8800315 	stw	r2,12(sp)
 1004118:	d8c00415 	stw	r3,16(sp)
 100411c:	008002c4 	movi	r2,11
 1004120:	d8800515 	stw	r2,20(sp)
 1004124:	d9000615 	stw	r4,24(sp)
 1004128:	01003204 	movi	r4,200
 100412c:	01404b04 	movi	r5,300
 1004130:	01802584 	movi	r6,150
 1004134:	01c00c84 	movi	r7,50
 1004138:	1000e8c0 	call	1000e8c <buildButton>
			"Where am I?", &(panicPage->buttons[1]), strlen("Where am I?"),
			map);
	buildButton(600, 300, BUTTON_WIDTH, BUTTON_HEIGHT, BLACK, AQUA, BLACK,
 100413c:	e0bfff17 	ldw	r2,-4(fp)
 1004140:	10800817 	ldw	r2,32(r2)
 1004144:	10c01404 	addi	r3,r2,80
 1004148:	d1270517 	ldw	r4,-25580(gp)
 100414c:	d8000015 	stw	zero,0(sp)
 1004150:	00800f44 	movi	r2,61
 1004154:	d8800115 	stw	r2,4(sp)
 1004158:	d8000215 	stw	zero,8(sp)
 100415c:	008040f4 	movhi	r2,259
 1004160:	10a51004 	addi	r2,r2,-27584
 1004164:	d8800315 	stw	r2,12(sp)
 1004168:	d8c00415 	stw	r3,16(sp)
 100416c:	00800244 	movi	r2,9
 1004170:	d8800515 	stw	r2,20(sp)
 1004174:	d9000615 	stw	r4,24(sp)
 1004178:	01009604 	movi	r4,600
 100417c:	01404b04 	movi	r5,300
 1004180:	01802584 	movi	r6,150
 1004184:	01c00c84 	movi	r7,50
 1004188:	1000e8c0 	call	1000e8c <buildButton>
			"Remind Me", &(panicPage->buttons[2]), strlen("Remind Me"), self);
	buildButton(400, 300, BUTTON_WIDTH, BUTTON_HEIGHT, BLACK, AQUA, BLACK,
 100418c:	e0bfff17 	ldw	r2,-4(fp)
 1004190:	10800817 	ldw	r2,32(r2)
 1004194:	10c01e04 	addi	r3,r2,120
 1004198:	d1270d17 	ldw	r4,-25548(gp)
 100419c:	d8000015 	stw	zero,0(sp)
 10041a0:	00800f44 	movi	r2,61
 10041a4:	d8800115 	stw	r2,4(sp)
 10041a8:	d8000215 	stw	zero,8(sp)
 10041ac:	008040f4 	movhi	r2,259
 10041b0:	10a51304 	addi	r2,r2,-27572
 10041b4:	d8800315 	stw	r2,12(sp)
 10041b8:	d8c00415 	stw	r3,16(sp)
 10041bc:	008001c4 	movi	r2,7
 10041c0:	d8800515 	stw	r2,20(sp)
 10041c4:	d9000615 	stw	r4,24(sp)
 10041c8:	01006404 	movi	r4,400
 10041cc:	01404b04 	movi	r5,300
 10041d0:	01802584 	movi	r6,150
 10041d4:	01c00c84 	movi	r7,50
 10041d8:	1000e8c0 	call	1000e8c <buildButton>
			"Logging", &(panicPage->buttons[3]), strlen("Logging"),
			loggingSettings);

	buildObject(400, 200, 500, 100, RED, RED, RED, "You Got Out Of The Fence",
 10041dc:	e0bfff17 	ldw	r2,-4(fp)
 10041e0:	10c00917 	ldw	r3,36(r2)
 10041e4:	00800084 	movi	r2,2
 10041e8:	d8800015 	stw	r2,0(sp)
 10041ec:	00800084 	movi	r2,2
 10041f0:	d8800115 	stw	r2,4(sp)
 10041f4:	00800084 	movi	r2,2
 10041f8:	d8800215 	stw	r2,8(sp)
 10041fc:	008040f4 	movhi	r2,259
 1004200:	10a51504 	addi	r2,r2,-27564
 1004204:	d8800315 	stw	r2,12(sp)
 1004208:	d8c00415 	stw	r3,16(sp)
 100420c:	00800604 	movi	r2,24
 1004210:	d8800515 	stw	r2,20(sp)
 1004214:	01006404 	movi	r4,400
 1004218:	01403204 	movi	r5,200
 100421c:	01807d04 	movi	r6,500
 1004220:	01c01904 	movi	r7,100
 1004224:	10023f80 	call	10023f8 <buildObject>
			&(panicPage->objects[0]), strlen("You Got Out Of The Fence"));

	// disable logging intially
	writeToSD("n", "logfl.txt");
 1004228:	010040f4 	movhi	r4,259
 100422c:	21251c04 	addi	r4,r4,-27536
 1004230:	014040f4 	movhi	r5,259
 1004234:	29651d04 	addi	r5,r5,-27532
 1004238:	100ad340 	call	100ad34 <writeToSD>
	// intialize panicFlag
	panicFlag = 0;
 100423c:	d0271215 	stw	zero,-25528(gp)
}
 1004240:	e037883a 	mov	sp,fp
 1004244:	dfc00117 	ldw	ra,4(sp)
 1004248:	df000017 	ldw	fp,0(sp)
 100424c:	dec00204 	addi	sp,sp,8
 1004250:	f800283a 	ret

01004254 <buildAddressesPage>:

void buildAddressesPage(Page *addresses) {
 1004254:	defe7104 	addi	sp,sp,-1596
 1004258:	dfc18e15 	stw	ra,1592(sp)
 100425c:	df018d15 	stw	fp,1588(sp)
 1004260:	dc018c15 	stw	r16,1584(sp)
 1004264:	df018c04 	addi	fp,sp,1584
 1004268:	e13fff15 	stw	r4,-4(fp)
	addresses->buttons = malloc(sizeof(Button) * 1);
 100426c:	01000a04 	movi	r4,40
 1004270:	1014b200 	call	1014b20 <malloc>
 1004274:	1007883a 	mov	r3,r2
 1004278:	e0bfff17 	ldw	r2,-4(fp)
 100427c:	10c00815 	stw	r3,32(r2)
	addresses->objects = malloc(sizeof(Object) * 4);
 1004280:	01002404 	movi	r4,144
 1004284:	1014b200 	call	1014b20 <malloc>
 1004288:	1007883a 	mov	r3,r2
 100428c:	e0bfff17 	ldw	r2,-4(fp)
 1004290:	10c00915 	stw	r3,36(r2)
	addresses->numButtons = 1;
 1004294:	e0ffff17 	ldw	r3,-4(fp)
 1004298:	00800044 	movi	r2,1
 100429c:	18800315 	stw	r2,12(r3)
	addresses->numObjects = 4;
 10042a0:	e0ffff17 	ldw	r3,-4(fp)
 10042a4:	00800104 	movi	r2,4
 10042a8:	18800415 	stw	r2,16(r3)
	addresses->backColour = POWDER_BLUE;
 10042ac:	e0ffff17 	ldw	r3,-4(fp)
 10042b0:	00801104 	movi	r2,68
 10042b4:	18800015 	stw	r2,0(r3)
	addresses->numInputBoxes = 0;
 10042b8:	e0bfff17 	ldw	r2,-4(fp)
 10042bc:	10000215 	stw	zero,8(r2)
	addresses->numSDBoxes = 0;
 10042c0:	e0bfff17 	ldw	r2,-4(fp)
 10042c4:	10000515 	stw	zero,20(r2)

	char read[512] = "";
 10042c8:	008040f4 	movhi	r2,259
 10042cc:	10a4ea04 	addi	r2,r2,-27736
 10042d0:	10800003 	ldbu	r2,0(r2)
 10042d4:	e0be7f05 	stb	r2,-1540(fp)
 10042d8:	e13e7f44 	addi	r4,fp,-1539
 10042dc:	01807fc4 	movi	r6,511
 10042e0:	000b883a 	mov	r5,zero
 10042e4:	10153f40 	call	10153f4 <memset>
	char read2[512] = "";
 10042e8:	008040f4 	movhi	r2,259
 10042ec:	10a4ea04 	addi	r2,r2,-27736
 10042f0:	10800003 	ldbu	r2,0(r2)
 10042f4:	e0beff05 	stb	r2,-1028(fp)
 10042f8:	e13eff44 	addi	r4,fp,-1027
 10042fc:	01807fc4 	movi	r6,511
 1004300:	000b883a 	mov	r5,zero
 1004304:	10153f40 	call	10153f4 <memset>
	char read3[512] = "";
 1004308:	008040f4 	movhi	r2,259
 100430c:	10a4ea04 	addi	r2,r2,-27736
 1004310:	10800003 	ldbu	r2,0(r2)
 1004314:	e0bf7f05 	stb	r2,-516(fp)
 1004318:	e13f7f44 	addi	r4,fp,-515
 100431c:	01807fc4 	movi	r6,511
 1004320:	000b883a 	mov	r5,zero
 1004324:	10153f40 	call	10153f4 <memset>
	char* ad;
	char* ad2;
	char* ad3;
	int i;

	readFromSD(read, AD1, 512);
 1004328:	e13e7f04 	addi	r4,fp,-1540
 100432c:	014040f4 	movhi	r5,259
 1004330:	29652004 	addi	r5,r5,-27520
 1004334:	01808004 	movi	r6,512
 1004338:	100ae780 	call	100ae78 <readFromSD>
	for(i=0;i<512;i++){
 100433c:	e03e7b15 	stw	zero,-1556(fp)
 1004340:	00001106 	br	1004388 <buildAddressesPage+0x134>
		if(read[i]=='$'){
 1004344:	e0fe7b17 	ldw	r3,-1556(fp)
 1004348:	e0be7f04 	addi	r2,fp,-1540
 100434c:	10c5883a 	add	r2,r2,r3
 1004350:	10800003 	ldbu	r2,0(r2)
 1004354:	10803fcc 	andi	r2,r2,255
 1004358:	1080201c 	xori	r2,r2,128
 100435c:	10bfe004 	addi	r2,r2,-128
 1004360:	10800918 	cmpnei	r2,r2,36
 1004364:	1000051e 	bne	r2,zero,100437c <buildAddressesPage+0x128>
		read[i]='\0';
 1004368:	e0be7b17 	ldw	r2,-1556(fp)
 100436c:	e0fe7f04 	addi	r3,fp,-1540
 1004370:	1885883a 	add	r2,r3,r2
 1004374:	10000005 	stb	zero,0(r2)
		break;
 1004378:	00000606 	br	1004394 <buildAddressesPage+0x140>
	char* ad2;
	char* ad3;
	int i;

	readFromSD(read, AD1, 512);
	for(i=0;i<512;i++){
 100437c:	e0be7b17 	ldw	r2,-1556(fp)
 1004380:	10800044 	addi	r2,r2,1
 1004384:	e0be7b15 	stw	r2,-1556(fp)
 1004388:	e0be7b17 	ldw	r2,-1556(fp)
 100438c:	10808010 	cmplti	r2,r2,512
 1004390:	103fec1e 	bne	r2,zero,1004344 <buildAddressesPage+0xf0>
		if(read[i]=='$'){
		read[i]='\0';
		break;
		}
	}
	ad = malloc(strlen(read) * sizeof(char));
 1004394:	e13e7f04 	addi	r4,fp,-1540
 1004398:	1015cfc0 	call	1015cfc <strlen>
 100439c:	1009883a 	mov	r4,r2
 10043a0:	1014b200 	call	1014b20 <malloc>
 10043a4:	e0be7e15 	stw	r2,-1544(fp)
	strcpy(ad,read);
 10043a8:	e17e7f04 	addi	r5,fp,-1540
 10043ac:	e13e7e17 	ldw	r4,-1544(fp)
 10043b0:	1015c700 	call	1015c70 <strcpy>

	readFromSD(read2, AD2, 512);
 10043b4:	e13eff04 	addi	r4,fp,-1028
 10043b8:	014040f4 	movhi	r5,259
 10043bc:	29652204 	addi	r5,r5,-27512
 10043c0:	01808004 	movi	r6,512
 10043c4:	100ae780 	call	100ae78 <readFromSD>
	for(i=0;i<512;i++){
 10043c8:	e03e7b15 	stw	zero,-1556(fp)
 10043cc:	00001106 	br	1004414 <buildAddressesPage+0x1c0>
		if(read2[i]=='$'){
 10043d0:	e0fe7b17 	ldw	r3,-1556(fp)
 10043d4:	e0beff04 	addi	r2,fp,-1028
 10043d8:	10c5883a 	add	r2,r2,r3
 10043dc:	10800003 	ldbu	r2,0(r2)
 10043e0:	10803fcc 	andi	r2,r2,255
 10043e4:	1080201c 	xori	r2,r2,128
 10043e8:	10bfe004 	addi	r2,r2,-128
 10043ec:	10800918 	cmpnei	r2,r2,36
 10043f0:	1000051e 	bne	r2,zero,1004408 <buildAddressesPage+0x1b4>
		read2[i]='\0';
 10043f4:	e0be7b17 	ldw	r2,-1556(fp)
 10043f8:	e0feff04 	addi	r3,fp,-1028
 10043fc:	1885883a 	add	r2,r3,r2
 1004400:	10000005 	stb	zero,0(r2)
		break;
 1004404:	00000606 	br	1004420 <buildAddressesPage+0x1cc>
	}
	ad = malloc(strlen(read) * sizeof(char));
	strcpy(ad,read);

	readFromSD(read2, AD2, 512);
	for(i=0;i<512;i++){
 1004408:	e0be7b17 	ldw	r2,-1556(fp)
 100440c:	10800044 	addi	r2,r2,1
 1004410:	e0be7b15 	stw	r2,-1556(fp)
 1004414:	e0be7b17 	ldw	r2,-1556(fp)
 1004418:	10808010 	cmplti	r2,r2,512
 100441c:	103fec1e 	bne	r2,zero,10043d0 <buildAddressesPage+0x17c>
		if(read2[i]=='$'){
		read2[i]='\0';
		break;
		}
	}
	ad2 = malloc(strlen(read2) * sizeof(char));
 1004420:	e13eff04 	addi	r4,fp,-1028
 1004424:	1015cfc0 	call	1015cfc <strlen>
 1004428:	1009883a 	mov	r4,r2
 100442c:	1014b200 	call	1014b20 <malloc>
 1004430:	e0be7d15 	stw	r2,-1548(fp)
	strcpy(ad2,read2);
 1004434:	e17eff04 	addi	r5,fp,-1028
 1004438:	e13e7d17 	ldw	r4,-1548(fp)
 100443c:	1015c700 	call	1015c70 <strcpy>

	readFromSD(read3, AD3, 512);
 1004440:	e13f7f04 	addi	r4,fp,-516
 1004444:	014040f4 	movhi	r5,259
 1004448:	29652404 	addi	r5,r5,-27504
 100444c:	01808004 	movi	r6,512
 1004450:	100ae780 	call	100ae78 <readFromSD>
	for(i=0;i<512;i++){
 1004454:	e03e7b15 	stw	zero,-1556(fp)
 1004458:	00001106 	br	10044a0 <buildAddressesPage+0x24c>
		if(read3[i]=='$'){
 100445c:	e0fe7b17 	ldw	r3,-1556(fp)
 1004460:	e0bf7f04 	addi	r2,fp,-516
 1004464:	10c5883a 	add	r2,r2,r3
 1004468:	10800003 	ldbu	r2,0(r2)
 100446c:	10803fcc 	andi	r2,r2,255
 1004470:	1080201c 	xori	r2,r2,128
 1004474:	10bfe004 	addi	r2,r2,-128
 1004478:	10800918 	cmpnei	r2,r2,36
 100447c:	1000051e 	bne	r2,zero,1004494 <buildAddressesPage+0x240>
		read3[i]='\0';
 1004480:	e0be7b17 	ldw	r2,-1556(fp)
 1004484:	e0ff7f04 	addi	r3,fp,-516
 1004488:	1885883a 	add	r2,r3,r2
 100448c:	10000005 	stb	zero,0(r2)
		break;
 1004490:	00000606 	br	10044ac <buildAddressesPage+0x258>
	}
	ad2 = malloc(strlen(read2) * sizeof(char));
	strcpy(ad2,read2);

	readFromSD(read3, AD3, 512);
	for(i=0;i<512;i++){
 1004494:	e0be7b17 	ldw	r2,-1556(fp)
 1004498:	10800044 	addi	r2,r2,1
 100449c:	e0be7b15 	stw	r2,-1556(fp)
 10044a0:	e0be7b17 	ldw	r2,-1556(fp)
 10044a4:	10808010 	cmplti	r2,r2,512
 10044a8:	103fec1e 	bne	r2,zero,100445c <buildAddressesPage+0x208>
		if(read3[i]=='$'){
		read3[i]='\0';
		break;
		}
	}
	ad3 = malloc(strlen(read3) * sizeof(char));
 10044ac:	e13f7f04 	addi	r4,fp,-516
 10044b0:	1015cfc0 	call	1015cfc <strlen>
 10044b4:	1009883a 	mov	r4,r2
 10044b8:	1014b200 	call	1014b20 <malloc>
 10044bc:	e0be7c15 	stw	r2,-1552(fp)
	strcpy(ad3,read3);
 10044c0:	e17f7f04 	addi	r5,fp,-516
 10044c4:	e13e7c17 	ldw	r4,-1552(fp)
 10044c8:	1015c700 	call	1015c70 <strcpy>

	buildButton(700, 420, BUTTON_WIDTH, BUTTON_HEIGHT, BLACK, AQUA, BLACK,
 10044cc:	e0bfff17 	ldw	r2,-4(fp)
 10044d0:	10c00817 	ldw	r3,32(r2)
 10044d4:	d1271117 	ldw	r4,-25532(gp)
 10044d8:	d8000015 	stw	zero,0(sp)
 10044dc:	00800f44 	movi	r2,61
 10044e0:	d8800115 	stw	r2,4(sp)
 10044e4:	d8000215 	stw	zero,8(sp)
 10044e8:	008040f4 	movhi	r2,259
 10044ec:	10a4b904 	addi	r2,r2,-27932
 10044f0:	d8800315 	stw	r2,12(sp)
 10044f4:	d8c00415 	stw	r3,16(sp)
 10044f8:	00800104 	movi	r2,4
 10044fc:	d8800515 	stw	r2,20(sp)
 1004500:	d9000615 	stw	r4,24(sp)
 1004504:	0100af04 	movi	r4,700
 1004508:	01406904 	movi	r5,420
 100450c:	01802584 	movi	r6,150
 1004510:	01c00c84 	movi	r7,50
 1004514:	1000e8c0 	call	1000e8c <buildButton>
			"Menu", &(addresses->buttons[0]), strlen("Menu"), home);

	buildObject(400, 50, 400, 30, CORN_FLOWER_BLUE, CORN_FLOWER_BLUE,
 1004518:	e0bfff17 	ldw	r2,-4(fp)
 100451c:	10c00917 	ldw	r3,36(r2)
 1004520:	008011c4 	movi	r2,71
 1004524:	d8800015 	stw	r2,0(sp)
 1004528:	008011c4 	movi	r2,71
 100452c:	d8800115 	stw	r2,4(sp)
 1004530:	008011c4 	movi	r2,71
 1004534:	d8800215 	stw	r2,8(sp)
 1004538:	008040f4 	movhi	r2,259
 100453c:	10a52604 	addi	r2,r2,-27496
 1004540:	d8800315 	stw	r2,12(sp)
 1004544:	d8c00415 	stw	r3,16(sp)
 1004548:	00800444 	movi	r2,17
 100454c:	d8800515 	stw	r2,20(sp)
 1004550:	01006404 	movi	r4,400
 1004554:	01400c84 	movi	r5,50
 1004558:	01806404 	movi	r6,400
 100455c:	01c00784 	movi	r7,30
 1004560:	10023f80 	call	10023f8 <buildObject>
			CORN_FLOWER_BLUE, "List of Addresses", &(addresses->objects[0]),
			strlen("List of Addresses"));
	buildObject(400, 170, 650, 50, WHITE, WHITE, WHITE, ad,
 1004564:	e0bfff17 	ldw	r2,-4(fp)
 1004568:	10800917 	ldw	r2,36(r2)
 100456c:	14000904 	addi	r16,r2,36
 1004570:	e13e7e17 	ldw	r4,-1544(fp)
 1004574:	1015cfc0 	call	1015cfc <strlen>
 1004578:	1007883a 	mov	r3,r2
 100457c:	00800044 	movi	r2,1
 1004580:	d8800015 	stw	r2,0(sp)
 1004584:	00800044 	movi	r2,1
 1004588:	d8800115 	stw	r2,4(sp)
 100458c:	00800044 	movi	r2,1
 1004590:	d8800215 	stw	r2,8(sp)
 1004594:	e0be7e17 	ldw	r2,-1544(fp)
 1004598:	d8800315 	stw	r2,12(sp)
 100459c:	dc000415 	stw	r16,16(sp)
 10045a0:	d8c00515 	stw	r3,20(sp)
 10045a4:	01006404 	movi	r4,400
 10045a8:	01402a84 	movi	r5,170
 10045ac:	0180a284 	movi	r6,650
 10045b0:	01c00c84 	movi	r7,50
 10045b4:	10023f80 	call	10023f8 <buildObject>
			&(addresses->objects[1]), strlen(ad));
	buildObject(400, 250, 650, 50, WHITE, WHITE, WHITE, ad2,
 10045b8:	e0bfff17 	ldw	r2,-4(fp)
 10045bc:	10800917 	ldw	r2,36(r2)
 10045c0:	14001204 	addi	r16,r2,72
 10045c4:	e13e7d17 	ldw	r4,-1548(fp)
 10045c8:	1015cfc0 	call	1015cfc <strlen>
 10045cc:	1007883a 	mov	r3,r2
 10045d0:	00800044 	movi	r2,1
 10045d4:	d8800015 	stw	r2,0(sp)
 10045d8:	00800044 	movi	r2,1
 10045dc:	d8800115 	stw	r2,4(sp)
 10045e0:	00800044 	movi	r2,1
 10045e4:	d8800215 	stw	r2,8(sp)
 10045e8:	e0be7d17 	ldw	r2,-1548(fp)
 10045ec:	d8800315 	stw	r2,12(sp)
 10045f0:	dc000415 	stw	r16,16(sp)
 10045f4:	d8c00515 	stw	r3,20(sp)
 10045f8:	01006404 	movi	r4,400
 10045fc:	01403e84 	movi	r5,250
 1004600:	0180a284 	movi	r6,650
 1004604:	01c00c84 	movi	r7,50
 1004608:	10023f80 	call	10023f8 <buildObject>
			&(addresses->objects[2]), strlen(ad2));
	buildObject(400, 345, 650, 50, WHITE, WHITE, WHITE, ad3,
 100460c:	e0bfff17 	ldw	r2,-4(fp)
 1004610:	10800917 	ldw	r2,36(r2)
 1004614:	14001b04 	addi	r16,r2,108
 1004618:	e13e7c17 	ldw	r4,-1552(fp)
 100461c:	1015cfc0 	call	1015cfc <strlen>
 1004620:	1007883a 	mov	r3,r2
 1004624:	00800044 	movi	r2,1
 1004628:	d8800015 	stw	r2,0(sp)
 100462c:	00800044 	movi	r2,1
 1004630:	d8800115 	stw	r2,4(sp)
 1004634:	00800044 	movi	r2,1
 1004638:	d8800215 	stw	r2,8(sp)
 100463c:	e0be7c17 	ldw	r2,-1552(fp)
 1004640:	d8800315 	stw	r2,12(sp)
 1004644:	dc000415 	stw	r16,16(sp)
 1004648:	d8c00515 	stw	r3,20(sp)
 100464c:	01006404 	movi	r4,400
 1004650:	01405644 	movi	r5,345
 1004654:	0180a284 	movi	r6,650
 1004658:	01c00c84 	movi	r7,50
 100465c:	10023f80 	call	10023f8 <buildObject>
			&(addresses->objects[3]), strlen(ad3));

}
 1004660:	e037883a 	mov	sp,fp
 1004664:	dfc00217 	ldw	ra,8(sp)
 1004668:	df000117 	ldw	fp,4(sp)
 100466c:	dc000017 	ldw	r16,0(sp)
 1004670:	dec00304 	addi	sp,sp,12
 1004674:	f800283a 	ret

01004678 <char2hex>:
#include <math.h>
#include "Structures.h"
#include "Cipher.h"
#include "SD_CARD.h"

int char2hex(char c) {
 1004678:	defffc04 	addi	sp,sp,-16
 100467c:	df000315 	stw	fp,12(sp)
 1004680:	df000304 	addi	fp,sp,12
 1004684:	e13ffd05 	stb	r4,-12(fp)
	switch (c) {
 1004688:	e0bffd07 	ldb	r2,-12(fp)
 100468c:	10bff404 	addi	r2,r2,-48
 1004690:	e0bfff15 	stw	r2,-4(fp)
 1004694:	e0ffff17 	ldw	r3,-4(fp)
 1004698:	18800de8 	cmpgeui	r2,r3,55
 100469c:	10006f1e 	bne	r2,zero,100485c <char2hex+0x1e4>
 10046a0:	e13fff17 	ldw	r4,-4(fp)
 10046a4:	e13fff17 	ldw	r4,-4(fp)
 10046a8:	2105883a 	add	r2,r4,r4
 10046ac:	1087883a 	add	r3,r2,r2
 10046b0:	00804034 	movhi	r2,256
 10046b4:	1091b104 	addi	r2,r2,18116
 10046b8:	1885883a 	add	r2,r3,r2
 10046bc:	10800017 	ldw	r2,0(r2)
 10046c0:	1000683a 	jmp	r2
 10046c4:	010047a0 	cmpeqi	r4,zero,286
 10046c8:	010047a8 	cmpgeui	r4,zero,286
 10046cc:	010047b4 	movhi	r4,286
 10046d0:	010047c0 	call	10047c <__alt_mem_onchip_memory2_0+0x10047c>
 10046d4:	010047cc 	andi	r4,zero,287
 10046d8:	010047d8 	cmpnei	r4,zero,287
 10046dc:	010047e4 	muli	r4,zero,287
 10046e0:	010047f0 	cmpltui	r4,zero,287
